******************************************************************************
               TMS320C6x Linker Unix v8.3.3                    
******************************************************************************
>> Linked Wed May  8 04:15:59 2019

OUTPUT FILE NAME:   <test/xwr18xx_objectdetection_test_dss.xe674>
ENTRY POINT SYMBOL: "_c_int00"  address: 007fdc00


MEMORY CONFIGURATION

         name            origin    length      used     unused   attr    fill
----------------------  --------  ---------  --------  --------  ----  --------
PAGE 0:
  L2SRAM_UMAP1          007e0000   00020000  0001ffe0  00000020  RWIX
  L2SRAM_UMAP0          00800000   00020000  0001fc2b  000003d5  RWIX
  L1PSRAM               00e00000   00004000  00000000  00004000  RWIX
  L1DSRAM               00f00000   00004000  00002400  00001c00  RWIX
  L3SRAM                20000000   00100000  000fef20  000010e0  RWIX
  HWA_RAM               21030000   00010000  00000000  00010000  RWIX
  HSRAM                 21080000   00008000  00004000  00004000  RWIX

PAGE 1:
  L3SRAM                20000000   00100000  00000000  00100000  RWIX


SEGMENT ALLOCATION MAP

run origin  load origin   length   init length attrs members
----------  ----------- ---------- ----------- ----- -------
007e0000    007e0000    0001ffe0   0001ffe0    r-x
  007e0000    007e0000    00000200   00000200    r-x .vecs
  007e0200    007e0200    0001fde0   0001fde0    r-x .text.1
00800000    00800000    00002e20   00002e20    r-x
  00800000    00800000    00002e20   00002e20    r-x .text.2
00802e20    00802e20    00018900   00000000    rw-
  00802e20    00802e20    0000a000   00000000    rw- .l2Heap
  0080ce20    0080ce20    00008000   00000000    rw- systemHeap
  00814e20    00814e20    00005fdc   00000000    rw- .far
  0081ae00    0081ae00    00000800   00000000    rw- .stack
  0081b600    0081b600    00000120   00000000    rw- .cio
0081b720    0081b720    0000002c   0000002c    rw-
  0081b720    0081b720    0000002c   0000002c    rw- .neardata
0081b750    0081b750    00003344   00003344    r--
  0081b750    0081b750    00003344   00003344    r-- .const
0081ea98    0081ea98    0000109c   0000109c    rw-
  0081ea98    0081ea98    0000109c   0000109c    rw- .fardata
0081fb34    0081fb34    000000f4   000000f4    r--
  0081fb34    0081fb34    000000f4   000000f4    r-- .switch
0081fc28    0081fc28    0000000f   00000000    rw-
  0081fc28    0081fc28    0000000f   00000000    rw- .bss
00f00000    00f00000    00002400   00000000    rw-
  00f00000    00f00000    00002400   00000000    rw- .MCPILogBuffer
20000000    20000000    000fef20   000fef20    rwx
  20000000    20000000    000fef20   000fef20    rwx .l3ram
21080000    21080000    00004000   00000000    rw-
  21080000    21080000    00004000   00000000    rw- .hsram


SECTION ALLOCATION MAP

 output                                  attributes/
section   page    origin      length       input sections
--------  ----  ----------  ----------   ----------------
xdc.meta   0    00000000    00000120     COPY SECTION
                  00000000    00000120     dss_pe674.oe674 (xdc.meta)

.vecs      0    007e0000    00000200     
                  007e0000    00000200     dss_pe674.oe674 (.vecs)

.stack     0    0081ae00    00000800     UNINITIALIZED
                  0081ae00    00000008     boot.ae674 : boot.oe674 (.stack)
                  0081ae08    000007f8     --HOLE--

.neardata 
*          0    0081b720    0000002c     
                  0081b720    00000016     main.oe674 (.neardata)
                  0081b736    00000002     --HOLE-- [fill = 0]
                  0081b738    00000008     gen_frame_data.oe674 (.neardata)
                  0081b740    00000004     libdpm_xwr18xx.ae674 : dpm_mailbox.oe674 (.neardata)
                  0081b744    00000004     libedma_xwr18xx.ae674 : edma_low_level.oe674 (.neardata)
                  0081b748    00000004     libtestlogger_xwr18xx.ae674 : logger.oe674 (.neardata)

.bss       0    0081fc28    0000000f     UNINITIALIZED
                  0081fc28    00000004     (.common:MCPI_FailSignature)
                  0081fc2c    00000004     (.common:gObjDetObj)
                  0081fc30    00000004     (.common:socHandle)
                  0081fc34    00000002     (.common:gCurrTestId)
                  0081fc36    00000001     (.common:MCPI_Result)

.cinit     0    00800000    00000000     UNINITIALIZED

.text.1    0    007e0200    0001fde0     
                  007e0200    00000c00     main.oe674 (.text:ObjectDetection_Test_task)
                  007e0e00    00000ba0     sysbios.ae674 : BIOS.obj (.text:xdc_runtime_System_doPrint__I)
                  007e19a0    00000b40     libdopplerproc_hwa_xwr18xx.ae674 : dopplerprochwa.oe674 (.text:DPU_DopplerProcHWA_config)
                  007e24e0    000009e0     librangeproc_hwa_xwr18xx.ae674 : rangeprochwa.oe674 (.text:DPU_RangeProcHWA_process)
                  007e2ec0    00000900     libhwa_xwr18xx.ae674 : hwa.oe674 (.text:HWA_configParamSet)
                  007e37c0    00000840     objectdetection.oe674 (.text:DPC_ObjectDetection_ioctl)
                  007e4000    000007e0     librangeproc_hwa_xwr18xx.ae674 : rangeprochwa.oe674 (.text:DPU_RangeProcHWA_config)
                  007e47e0    00000780     sysbios.ae674 : BIOS.obj (.text:ti_sysbios_family_c64p_Exception_handler__I)
                  007e4f60    00000740     objectdetection.oe674 (.text:DPC_ObjDet_rangeBiasRxChPhaseMeasure)
                  007e56a0    00000720     libaoaproc_hwa_xwr18xx.ae674 : aoaprochwa.oe674 (.text:AoAProcHWA_config_EDMA)
                  007e5dc0    00000720                                  : aoaprochwa.oe674 (.text:HWAutil_configHWA_extendedVelocityScheme)
                  007e64e0    000006a0     sysbios.ae674 : BIOS.obj (.text:ti_sysbios_knl_Semaphore_pend__E)
                  007e6b80    00000680                   : BIOS.obj (.text:ti_sysbios_heaps_HeapMem_allocUnprotected__E)
                  007e7200    00000660                   : BIOS.obj (.text:ti_sysbios_heaps_HeapMem_freeUnprotected__E)
                  007e7860    000005e0     libaoaproc_hwa_xwr18xx.ae674 : aoaprochwa.oe674 (.text:DPU_AoAProcHWA_process)
                  007e7e40    00000580     sysbios.ae674 : BIOS.obj (.text:ti_sysbios_knl_Task_Instance_finalize__E)
                  007e83c0    000004e0     main.oe674 (.text:ObjectDetection_Test_setProfile)
                  007e88a0    000004c0     objectdetection.oe674 (.text:DPC_ObjDet_AoAconfig)
                  007e8d60    000004c0     librangeproc_hwa_xwr18xx.ae674 : rangeprochwa.oe674 (.text:rangeProcHWA_ConfigEDMA_DataOut_nonInterleave)
                  007e9220    00000440     sysbios.ae674 : BIOS.obj (.text:ti_sysbios_knl_Task_Instance_init__E)
                  007e9660    00000420     libmailbox_xwr18xx.ae674 : mailbox.oe674 (.text:Mailbox_open)
                  007e9a80    000003e0     objectdetection.oe674 (.text:DPC_ObjDet_preStartConfig)
                  007e9e60    000003e0     sysbios.ae674 : BIOS.obj (.text:ti_sysbios_knl_Task_sleep__E)
                  007ea240    000003e0                   : BIOS.obj (.text:ti_sysbios_utils_Load_updateThreadContexts__E)
                  007ea620    000003c0     libaoaproc_hwa_xwr18xx.ae674 : aoaprochwa.oe674 (.text:AoAProcHWA_angleEstimationAzimElev)
                  007ea9e0    000003c0                                  : aoaprochwa.oe674 (.text:DPU_AoAProcHWA_config)
                  007eada0    000003c0     libhwa_xwr18xx.ae674 : hwa.oe674 (.text:HWA_configCommon)
                  007eb160    000003a0     librangeproc_hwa_xwr18xx.ae674 : rangeprochwa.oe674 (.text:rangeProcHWA_ConfigHWA)
                  007eb500    00000360     main.oe674 (.text:ObjectDetection_Test_CompareToRef)
                  007eb860    00000340     objectdetection.oe674 (.text:DPC_ObjDet_rangeConfig)
                  007ebba0    00000340     objectdetection.oe674 (.text:DPC_ObjectDetection_execute)
                  007ebee0    00000340     libstaticclutterproc_xwr18xx.ae674 : staticclutterproc.oe674 (.text:DPU_StaticClutterProc_process)
                  007ec220    00000320     rts6740_elf.lib : cos.c.obj (.text:cos)
                  007ec540    00000320                     : fputs.c.obj (.text:fputs)
                  007ec860    00000300     libaoaproc_hwa_xwr18xx.ae674 : aoaprochwa.oe674 (.text:HWAutil_configHWA_azimuthHeatMap)
                  007ecb60    000002e0     rts6740_elf.lib : sin.c.obj (.text:sin)
                  007ece40    000002e0     sysbios.ae674 : BIOS.obj (.text:ti_sysbios_heaps_HeapMem_Instance_init__E)
                  007ed120    000002e0                   : BIOS.obj (.text:xdc_runtime_Core_createObject__I)
                  007ed400    000002c0     libaoaproc_hwa_xwr18xx.ae674 : aoaprochwa.oe674 (.text:AoAProcHWA_XYZestimation)
                  007ed6c0    000002c0     objectdetection.oe674 (.text:DPC_ObjDet_dopplerConfig)
                  007ed980    000002c0     libedma_xwr18xx.ae674 : edma.oe674 (.text:EDMA_configChannel)
                  007edc40    000002c0                           : edma.oe674 (.text:EDMA_configErrorMonitoring)
                  007edf00    000002c0     sysbios.ae674 : BIOS.obj (.text:ti_sysbios_knl_Task_postInit__I)
                  007ee1c0    000002c0                   : BIOS.obj (.text:ti_sysbios_timers_rti_Timer_Module_startup__E)
                  007ee480    000002a0     libaoaproc_hwa_xwr18xx.ae674 : aoaprochwa.oe674 (.text:AoAProcHWA_PrepareRangeAzimuthHeatmap)
                  007ee720    000002a0     libcfarcaproc_hwa_xwr18xx.ae674 : cfarcaprochwa.oe674 (.text:DPU_CFARCAProcHWA_process)
                  007ee9c0    000002a0     libedma_xwr18xx.ae674 : edma.oe674 (.text:EDMA_open)
                  007eec60    000002a0     libhwa_xwr18xx.ae674 : hwa.oe674 (.text:HWA_open)
                  007eef00    000002a0     rts6740_elf.lib : divf.c.obj (.text:__c6xabi_divf)
                  007ef1a0    000002a0     sysbios.ae674 : BIOS.obj (.text:ti_sysbios_family_c64p_EventCombiner_dispatch__E)
                  007ef440    000002a0                   : BIOS.obj (.text:ti_sysbios_timers_rti_Timer_getFreq__E)
                  007ef6e0    00000280     objectdetection.oe674 (.text:DPC_ObjectDetection_init)
                  007ef960    00000280     sysbios.ae674 : BIOS.obj (.text:ti_sysbios_family_c64p_Cache_Module_startup__E)
                  007efbe0    00000280                   : BIOS.obj (.text:xdc_runtime_Startup_startMods__I)
                  007efe60    00000260     libaoaproc_hwa_xwr18xx.ae674 : aoaprochwa.oe674 (.text:AoAProcHWA_config_azimuthHeatMap_EDMA)
                  007f00c0    00000260     sysbios.ae674 : BIOS.obj (.text:ti_sysbios_gates_GateMutex_enter__E)
                  007f0320    00000240                   : BIOS.obj (.text:ti_sysbios_family_c64p_Exception_internalHandler__I)
                  007f0560    00000240                   : BIOS.obj (.text:xdc_runtime_Error_policyDefault__E)
                  007f07a0    00000240     dss_pe674.oe674 (.text:xdc_runtime_System_printfExtend__I)
                  007f09e0    00000220     libedma_xwr18xx.ae674 : edma.oe674 (.text:EDMA_transferComplete_isr)
                  007f0c00    00000220     libmailbox_xwr18xx.ae674 : mailbox.oe674 (.text:Mailbox_write)
                  007f0e20    00000220     libaoaproc_hwa_xwr18xx.ae674 : aoaprochwa.oe674 (.text:aoaHwa_dopplerCompensation)
                  007f1040    00000220     rts6740_elf.lib : open.c.obj (.text:open)
                  007f1260    00000220     sysbios.ae674 : BIOS.obj (.text:ti_sysbios_family_c64p_EventCombiner_dispatchPlug__E)
                  007f1480    00000220                   : BIOS.obj (.text:ti_sysbios_family_c64p_EventCombiner_enableEvent__E)
                  007f16a0    00000200     libaoaproc_hwa_xwr18xx.ae674 : aoaprochwa.oe674 (.text:DPU_AoAProcHWA_init)
                  007f18a0    00000200     sysbios.ae674 : c64p_Hwi_disp_always.obj (.text:_ti_sysbios_family_c64p_Hwi_dispatchAlways)
                  007f1aa0    00000200     libmathutils.ae674 : mathutils.oe674 (.text:mathUtils_genWindow)
                  007f1ca0    00000200     sysbios.ae674 : BIOS.obj (.text:ti_sysbios_family_c64p_EventCombiner_disableEvent__E)
                  007f1ea0    00000200                   : BIOS.obj (.text:ti_sysbios_utils_Load_idleFxn__E)
                  007f20a0    00000200                   : BIOS.obj (.text:xdc_runtime_Core_constructObject__I)
                  007f22a0    000001e0     objectdetection.oe674 (.text:DPC_ObjDet_CFARCAconfig)
                  007f2480    000001e0     libedma_xwr18xx.ae674 : edma.oe674 (.text:EDMA_init)
                  007f2660    000001e0     rts6740_elf.lib : log.c.obj (.text:log)
                  007f2840    000001e0     sysbios.ae674 : BIOS.obj (.text:ti_sysbios_knl_Semaphore_post__E)
                  007f2a20    000001c0     libdpedma_hwa_xwr18xx.ae674 : dpedma.oe674 (.text:DPEDMA_configSyncAB)
                  007f2be0    000001c0                                 : dpedma.oe674 (.text:DPEDMA_configSyncA_singleFrame)
                  007f2da0    000001c0     librangeproc_hwa_xwr18xx.ae674 : rangeprochwa.oe674 (.text:DPU_RangeProcHWA_control)
                  007f2f60    000001c0     libstaticclutterproc_xwr18xx.ae674 : staticclutterproc.oe674 (.text:DPU_StaticClutterProc_configEdma)
                  007f3120    000001c0     libcfarcaproc_hwa_xwr18xx.ae674 : cfarcaprochwa.oe674 (.text:HWAutil_configCFAR)
                  007f32e0    000001c0     libmailbox_xwr18xx.ae674 : mailbox.oe674 (.text:Mailbox_read)
                  007f34a0    000001c0     main.oe674 (.text:ObjectDetection_Test_configDPC)
                  007f3660    000001c0     libsoc_xwr18xx.ae674 : soc.oe674 (.text:SOC_deregisterSysIntListener)
                  007f3820    000001c0     rts6740_elf.lib : imath40.c.obj (.text:__c6xabi_divul)
                  007f39e0    000001c0                     : atan2.c.obj (.text:atan2)
                  007f3ba0    000001c0                     : fputc.c.obj (.text:fputc)
                  007f3d60    000001c0                     : frexp.c.obj (.text:frexp)
                  007f3f20    000001c0                     : ldexp.c.obj (.text:ldexp)
                  007f40e0    000001c0     librangeproc_hwa_xwr18xx.ae674 : rangeprochwa.oe674 (.text:rangeProcHWA_ConfigEDMADummyThreeLinks)
                  007f42a0    000001c0     rts6740_elf.lib : setvbuf.c.obj (.text:setvbuf)
                  007f4460    000001c0     sysbios.ae674 : BIOS.obj (.text:ti_sysbios_knl_Swi_restoreHwi__E)
                  007f4620    000001c0                   : BIOS.obj (.text:ti_sysbios_knl_Task_checkStacks__E)
                  007f47e0    000001c0                   : BIOS.obj (.text:xdc_runtime_Text_putSite__E)
                  007f49a0    000001a0     libcfarcaproc_hwa_xwr18xx.ae674 : cfarcaprochwa.oe674 (.text:CFARHWA_cfarRange_AND_cfarDoppler)
                  007f4b40    000001a0                                     : cfarcaprochwa.oe674 (.text:DPU_CFARCAProcHWA_config)
                  007f4ce0    000001a0     libdopplerproc_hwa_xwr18xx.ae674 : dopplerprochwa.oe674 (.text:DPU_DopplerProcHWA_init)
                  007f4e80    000001a0                                      : dopplerprochwa.oe674 (.text:DPU_DopplerProcHWA_process)
                  007f5020    000001a0     librangeproc_hwa_xwr18xx.ae674 : rangeprochwa.oe674 (.text:DPU_RangeProcHWA_init)
                  007f51c0    000001a0     libedma_xwr18xx.ae674 : edma.oe674 (.text:EDMA_paramConfig_assist)
                  007f5360    000001a0     rts6740_elf.lib : hostrename.c.obj (.text:HOSTrename)
                  007f5500    000001a0     main.oe674 (.text:ObjectDetection_Test_edmaOpen)
                  007f56a0    000001a0     main.oe674 (.text:ObjectDetection_Test_printAndCheckResults)
                  007f5840    000001a0     rts6740_elf.lib : asin.c.obj (.text:asin)
                  007f59e0    000001a0     sysbios.ae674 : BIOS.obj (.text:ti_sysbios_family_c64p_Cache_getL2InitSize__I)
                  007f5b80    000001a0                   : BIOS.obj (.text:ti_sysbios_heaps_HeapBuf_Module_startup__E)
                  007f5d20    000001a0                   : BIOS.obj (.text:ti_sysbios_knl_Swi_runLoop__I)
                  007f5ec0    000001a0                   : BIOS.obj (.text:ti_sysbios_knl_Task_exit__E)
                  007f6060    000001a0                   : BIOS.obj (.text:ti_sysbios_timers_rti_Timer_startup__E)
                  007f6200    00000180     libaoaproc_hwa_xwr18xx.ae674 : aoaprochwa.oe674 (.text:DPU_AoAProcHWA_control)
                  007f6380    00000180     libhwa_xwr18xx.ae674 : hwa.oe674 (.text:HWA_enableParamSetInterrupt)
                  007f6500    00000180     main.oe674 (.text:ObjectDetection_Test_DPCInit)
                  007f6680    00000180     sysbios.ae674 : c64p_Exception_asm.obj (.text)
                  007f6800    00000180                   : BIOS.obj (.text:ti_sysbios_knl_Task_schedule__I)
                  007f6980    00000180                   : BIOS.obj (.text:ti_sysbios_utils_Load_startup__E)
                  007f6b00    00000160     objectdetection.oe674 (.text:DPC_ObjDet_staticClutterConfig)
                  007f6c60    00000160     libedma_xwr18xx.ae674 : edma.oe674 (.text:EDMA_getErrorStatusInfo)
                  007f6dc0    00000160     libhwa_xwr18xx.ae674 : hwa.oe674 (.text:HWA_paramDoneISR)
                  007f6f20    00000160     libmailbox_xwr18xx.ae674 : mailbox.oe674 (.text:Mailbox_close)
                  007f7080    00000160     main.oe674 (.text:ObjectDetection_Test_reportFxn)
                  007f71e0    00000160     libsoc_xwr18xx.ae674 : soc.oe674 (.text:SOC_registerSysIntListener)
                  007f7340    00000160     rts6740_elf.lib : _bufread.c.obj (.text:__TI_buff_read)
                  007f74a0    00000160                     : sqrt.c.obj (.text:sqrt)
                  007f7600    00000160     sysbios.ae674 : BIOS.obj (.text:ti_sysbios_family_c64p_Cache_getL1DInitSize__I)
                  007f7760    00000160                   : BIOS.obj (.text:ti_sysbios_family_c64p_Cache_getL1PInitSize__I)
                  007f78c0    00000160                   : BIOS.obj (.text:ti_sysbios_family_c64p_Hwi_Module_startup__E)
                  007f7a20    00000160                   : BIOS.obj (.text:xdc_runtime_Core_deleteObject__I)
                  007f7b80    00000140     libaoaproc_hwa_xwr18xx.ae674 : aoaprochwa.oe674 (.text:AoAProcHWA_ConvertFov)
                  007f7cc0    00000140     libdpedma_hwa_xwr18xx.ae674 : dpedmahwa.oe674 (.text:DPEDMAHWA_configTwoHotSignature)
                  007f7e00    00000140     libcfarcaproc_hwa_xwr18xx.ae674 : cfarcaprochwa.oe674 (.text:DPU_CFARCAProcHWA_control)
                  007f7f40    00000140     libedma_xwr18xx.ae674 : edma_low_level.oe674 (.text:EDMA3Init)
                  007f8080    00000140                           : edma.oe674 (.text:EDMA_clearErrors)
                  007f81c0    00000140                           : edma.oe674 (.text:EDMA_startTransfer)
                  007f8300    00000140     libhwa_xwr18xx.ae674 : hwa.oe674 (.text:HWA_configRam)
                  007f8440    00000140     main.oe674 (.text:ObjectDetection_Test_convertCoordinates)
                  007f8580    00000140     librangeproc_hwa_xwr18xx.ae674 : rangeprochwa.oe674 (.text:rangeProcHWA_ConfigEDMA_DataIn)
                  007f86c0    00000140     sysbios.ae674 : BIOS.obj (.text:ti_sysbios_knl_Semaphore_Instance_init__E)
                  007f8800    00000140                   : BIOS.obj (.text:ti_sysbios_knl_Task_Module_startup__E)
                  007f8940    00000140                   : BIOS.obj (.text:ti_sysbios_knl_Task_startCore__E)
                  007f8a80    00000140                   : BIOS.obj (.text:ti_sysbios_timers_rti_Timer_initDevice__I)
                  007f8bc0    00000140                   : BIOS.obj (.text:ti_sysbios_utils_Load_addTask__E)
                  007f8d00    00000140                   : BIOS.obj (.text:ti_sysbios_utils_Load_updateLoads__E)
                  007f8e40    00000140                   : BIOS.obj (.text:xdc_runtime_Memory_alloc__E)
                  007f8f80    00000140                   : BIOS.obj (.text:xdc_runtime_Text_putLab__E)
                  007f90c0    00000140                   : BIOS.obj (.text:xdc_runtime_Text_putMod__E)
                  007f9200    00000140                   : BIOS.obj (.text:xdc_runtime_Text_visitRope2__I)
                  007f9340    00000120     objectdetection.oe674 (.text:DPC_ObjDet_GetRxChPhaseComp)
                  007f9460    00000120     libdpedma_hwa_xwr18xx.ae674 : dpedmahwa.oe674 (.text:DPEDMAHWA_configOneHotSignature)
                  007f9580    00000120     libedma_xwr18xx.ae674 : edma.oe674 (.text:EDMA_configParamSet)
                  007f96a0    00000120     libsoc_xwr18xx.ae674 : soc.oe674 (.text:SOC_init)
                  007f97c0    00000120     boot.ae674 : autoinit.oe674 (.text:_auto_init_elf)
                  007f98e0    00000120     rts6740_elf.lib : getdevice.c.obj (.text:getdevice)
                  007f9a00    00000120     sysbios.ae674 : BIOS.obj (.text:ti_sysbios_knl_Clock_workFunc__E)
                  007f9b20    00000120                   : BIOS.obj (.text:ti_sysbios_timers_rti_Timer_setPeriodMicroSecs__E)
                  007f9c40    00000120                   : BIOS.obj (.text:ti_sysbios_utils_Load_taskCreateHook__E)
                  007f9d60    00000120                   : BIOS.obj (.text:ti_sysbios_utils_Load_taskDeleteHook__E)
                  007f9e80    00000100     libaoaproc_hwa_xwr18xx.ae674 : aoaprochwa.oe674 (.text:AoAProcHWA_cfgAndTrigger_EDMA_2DFFT)
                  007f9f80    00000100     objectdetection.oe674 (.text:DPC_ObjDet_reconfigSubFrame)
                  007fa080    00000100     libcfarcaproc_hwa_xwr18xx.ae674 : cfarcaprochwa.oe674 (.text:DPU_CFARCAProcHWA_init)
                  007fa180    00000100     libstaticclutterproc_xwr18xx.ae674 : staticclutterproc.oe674 (.text:DPU_StaticClutterProc_config)
                  007fa280    00000100     libhwa_xwr18xx.ae674 : hwa.oe674 (.text:HWA_disableParamSetInterrupt)
                  007fa380    00000100     libmailbox_xwr18xx.ae674 : mailbox.oe674 (.text:Mailbox_readFlush)
                  007fa480    00000100     main.oe674 (.text:ObjectDetection_Test_dpmTask)
                  007fa580    00000100     libsoc_xwr18xx.ae674 : soc_xwr18xx_dss.oe674 (.text:SOC_deviceInit)
                  007fa680    00000100                          : soc_xwr18xx.oe674 (.text:SOC_translateAddress)
                  007fa780    00000100     rts6740_elf.lib : atoi.c.obj (.text:atoi)
                  007fa880    00000100                     : fflush.c.obj (.text:fflush)
                  007fa980    00000100                     : fseek.c.obj (.text:fseek)
                  007faa80    00000100     sysbios.ae674 : BIOS.obj (.text:xdc_runtime_Error_print__E)
                  007fab80    00000100                   : BIOS.obj (.text:xdc_runtime_Startup_exec__E)
                  007fac80    000000e0     objectdetection.oe674 (.text:DPC_ObjectDetection_deinit)
                  007fad60    000000e0     libedma_xwr18xx.ae674 : edma.oe674 (.text:EDMA_close)
                  007fae40    000000e0                           : edma.oe674 (.text:EDMA_isTransferComplete)
                  007faf20    000000e0                           : edma.oe674 (.text:EDMA_transferController_error_isr)
                  007fb000    000000e0     rts6740_elf.lib : hostlseek.c.obj (.text:HOSTlseek)
                  007fb0e0    000000e0                     : hostopen.c.obj (.text:HOSTopen)
                  007fb1c0    000000e0                     : hostwrite.c.obj (.text:HOSTwrite)
                  007fb2a0    000000e0     libmailbox_xwr18xx.ae674 : mailbox.oe674 (.text:Mailbox_boxFullISRMssDss)
                  007fb380    000000e0     rts6740_elf.lib : _ltoa.c.obj (.text:__TI_ltoa)
                  007fb460    000000e0                     : _io_perm.c.obj (.text:__TI_wrt_ok)
                  007fb540    000000e0                     : divi.asm.obj (.text:__divi)
                  007fb620    000000e0                     : close.c.obj (.text:close)
                  007fb700    000000e0                     : exit.c.obj (.text:exit)
                  007fb7e0    000000e0     main.oe674 (.text:main)
                  007fb8c0    000000e0     rts6740_elf.lib : memset.c.obj (.text:memset)
                  007fb9a0    000000e0                     : printf.c.obj (.text:printf)
                  007fba80    000000e0     sysbios.ae674 : BIOS.obj (.text:ti_sysbios_utils_Load_updateCurrentThreadTime__E)
                  007fbb60    000000c0     libcfarcaproc_hwa_xwr18xx.ae674 : cfarcaprochwa.oe674 (.text:CFARCAHWA_config_EDMA)
                  007fbc20    000000c0                                     : cfarcaprochwa.oe674 (.text:CFARHWA_prepareHwaRunTime)
                  007fbce0    000000c0     objectdetection.oe674 (.text:DPC_ObjectDetection_frameStart)
                  007fbda0    000000c0     libedma_xwr18xx.ae674 : edma.oe674 (.text:EDMA_error_isr)
                  007fbe60    000000c0                           : edma.oe674 (.text:EDMA_startDmaTransfer)
                  007fbf20    000000c0     rts6740_elf.lib : hostread.c.obj (.text:HOSTread)
                  007fbfe0    000000c0                     : hostunlink.c.obj (.text:HOSTunlink)
                  007fc0a0    000000c0     libhwa_xwr18xx.ae674 : hwa.oe674 (.text:HWA_close)
                  007fc160    000000c0                          : hwa.oe674 (.text:HWA_getDMAChanIndex)
                  007fc220    000000c0                          : hwa.oe674 (.text:HWA_getDMAconfig)
                  007fc2e0    000000c0                          : hwa.oe674 (.text:HWA_getDriverAccess)
                  007fc3a0    000000c0                          : hwa.oe674 (.text:HWA_getHWAMemInfo)
                  007fc460    000000c0     libmailbox_xwr18xx.ae674 : mailbox.oe674 (.text:Mailbox_boxFullISRProcessing)
                  007fc520    000000c0     objectdetection.oe674 (.text:_DPC_Objdet_Assert)
                  007fc5e0    000000c0     rts6740_elf.lib : divu.asm.obj (.text:__divu)
                  007fc6a0    000000c0                     : modf.c.obj (.text:modf)
                  007fc760    000000c0     librangeproc_hwa_xwr18xx.ae674 : rangeprochwa.oe674 (.text:rangeProcHWA_ConfigHWACommon)
                  007fc820    000000c0     sysbios.ae674 : BIOS.obj (.text:ti_sysbios_family_c64p_Hwi_dispatchCore__I)
                  007fc8e0    000000c0                   : BIOS.obj (.text:ti_sysbios_heaps_HeapMem_alloc__E)
                  007fc9a0    000000c0                   : BIOS.obj (.text:ti_sysbios_heaps_HeapMem_getStats__E)
                  007fca60    000000c0                   : BIOS.obj (.text:ti_sysbios_knl_Swi_schedule__I)
                  007fcb20    000000c0                   : BIOS.obj (.text:ti_sysbios_knl_Task_allBlockedFunction__I)
                  007fcbe0    000000c0     dss_pe674.oe674 (.text:ti_sysbios_knl_Task_create)
                  007fcca0    000000c0     sysbios.ae674 : BIOS.obj (.text:ti_sysbios_utils_Load_taskSwitchHook__E)
                  007fcd60    000000c0     rts6740_elf.lib : tls.c.obj (.text:tls:init:__TI_tls_init)
                  007fce20    000000c0     sysbios.ae674 : BIOS.obj (.text:xdc_runtime_Assert_raise__I)
                  007fcee0    000000a0     libcfarcaproc_hwa_xwr18xx.ae674 : cfarcaprochwa.oe674 (.text:CFARHWA_fovConvertDoppler)
                  007fcf80    000000a0                                     : cfarcaprochwa.oe674 (.text:CFARHWA_saveConfiguration)
                  007fd020    000000a0     objectdetection.oe674 (.text:DPC_ObjectDetection_start)
                  007fd0c0    000000a0     libdpedma_hwa_xwr18xx.ae674 : dpedma.oe674 (.text:DPEDMA_setup_shadow_link)
                  007fd160    000000a0     libedma_xwr18xx.ae674 : edma_low_level.oe674 (.text:EDMA3EnableChInShadowReg)
                  007fd200    000000a0                           : edma.oe674 (.text:EDMA_disableChannel)
                  007fd2a0    000000a0                           : edma.oe674 (.text:EDMA_enableChannel)
                  007fd340    000000a0     rts6740_elf.lib : hostclose.c.obj (.text:HOSTclose)
                  007fd3e0    000000a0     libhwa_xwr18xx.ae674 : hwa.oe674 (.text:HWA_deleteInstance)
                  007fd480    000000a0                          : hwa.oe674 (.text:HWA_disableDoneInterrupt)
                  007fd520    000000a0                          : hwa.oe674 (.text:HWA_enable)
                  007fd5c0    000000a0                          : hwa.oe674 (.text:HWA_enableDoneInterrupt)
                  007fd660    000000a0                          : hwa.oe674 (.text:HWA_readCFARPeakCountReg)
                  007fd700    000000a0     libmailbox_xwr18xx.ae674 : mailbox.oe674 (.text:Mailbox_boxEmptyISRProcessing)
                  007fd7a0    000000a0     main.oe674 (.text:ObjectDetection_Test_edmaInit)
                  007fd840    000000a0     libsoc_xwr18xx.ae674 : soc.oe674 (.text:SOC_SystemISR)
                  007fd8e0    000000a0     rts6740_elf.lib : fflush.c.obj (.text:__TI_doflush)
                  007fd980    000000a0                     : _io_perm.c.obj (.text:__TI_rd_ok)
                  007fda20    000000a0                     : fixfu.c.obj (.text:__c6xabi_fixfu)
                  007fdac0    000000a0                     : round.c.obj (.text:__c6xabi_nround)
                  007fdb60    000000a0                     : remu.asm.obj (.text:__remu)
                  007fdc00    000000a0     boot.ae674 : boot.oe674 (.text:_c_int00)
                  007fdca0    000000a0     rts6740_elf.lib : getdevice.c.obj (.text:finddevice)
                  007fdd40    000000a0                     : memcpy64.asm.obj (.text:memcpy)
                  007fdde0    000000a0     libmmwavealg_xwr18xx.ae674 : mmwavelib_vecsum.oe674 (.text:mmwavelib_vecsum)
                  007fde80    000000a0     mathlib.ae674 : sqrtsp.oe674 (.text:optasm)
                  007fdf20    000000a0     sysbios.ae674 : BIOS.obj (.text:ti_sysbios_family_c64p_Exception_Module_startup__E)
                  007fdfc0    000000a0                   : BIOS.obj (.text:ti_sysbios_family_c64p_Hwi_dispatchC__I)
                  007fe060    000000a0                   : BIOS.obj (.text:ti_sysbios_family_c64p_Hwi_getStackInfo__E)
                  007fe100    000000a0                   : BIOS.obj (.text:ti_sysbios_hal_Hwi_checkStack)
                  007fe1a0    000000a0                   : BIOS.obj (.text:ti_sysbios_knl_Semaphore_pendTimeout__I)
                  007fe240    000000a0                   : BIOS.obj (.text:xdc_runtime_Core_assignLabel__I)
                  007fe2e0    000000a0                   : BIOS.obj (.text:xdc_runtime_Core_assignParams__I)
                  007fe380    000000a0                   : BIOS.obj (.text:xdc_runtime_System_atexit__E)
                  007fe420    000000a0                   : BIOS.obj (.text:xdc_runtime_System_exit__E)
                  007fe4c0    000000a0                   : BIOS.obj (.text:xdc_runtime_Text_printVisFxn__I)
                  007fe560    000000a0                   : BIOS.obj (.text:xdc_runtime_Text_xprintf__I)
                  007fe600    00000080     libaoaproc_hwa_xwr18xx.ae674 : aoaprochwa.oe674 (.text:AoAProc_HWAutil_configCommon)
                  007fe680    00000080     libcfarcaproc_hwa_xwr18xx.ae674 : cfarcaprochwa.oe674 (.text:CFARHWA_convHwaCfarDetListToDetMask)
                  007fe700    00000080                                     : cfarcaprochwa.oe674 (.text:CFARHWA_fovConvertRange)
                  007fe780    00000080     objectdetection.oe674 (.text:DPC_ObjectDetection_stop)
                  007fe800    00000080     librangeproc_hwa_xwr18xx.ae674 : rangeprochwa.oe674 (.text:DPU_RangeProcHWA_deinit)
                  007fe880    00000080     libstaticclutterproc_xwr18xx.ae674 : staticclutterproc.oe674 (.text:DPU_StaticClutterProc_init)
                  007fe900    00000080                                        : staticclutterproc.oe674 (.text:DPU_StaticClutterProc_waitInData)
                  007fe980    00000080                                        : staticclutterproc.oe674 (.text:DPU_StaticClutterProc_waitOutData)
                  007fea00    00000080     libedma_xwr18xx.ae674 : edma_low_level.oe674 (.text:EDMA3MapChToEvtQ)
                  007fea80    00000080                           : edma.oe674 (.text:EDMA_getTransferControllerErrorStatusInfo)
                  007feb00    00000080                           : edma.oe674 (.text:EDMA_linkParamSets)
                  007feb80    00000080     libhwa_xwr18xx.ae674 : hwa.oe674 (.text:HWA_reset)
                  007fec00    00000080                          : hwa.oe674 (.text:HWA_setDMA2ACCManualTrig)
                  007fec80    00000080     main.oe674 (.text:ObjectDetection_Test_DPCDeinit)
                  007fed00    00000010     libdpm_xwr18xx.ae674 : dpm_core.oe674 ($Tramp$S$$DPM_deinit)
                  007fed10    00000010                          : dpm_core.oe674 ($Tramp$S$$DPM_start)
                  007fed20    00000080     main.oe674 (.text:ObjectDetection_Test_hwaOpen)
                  007feda0    00000080     main.oe674 (.text:ObjectDetection_Test_initComponents)
                  007fee20    00000080     main.oe674 (.text:ObjectDetection_Test_startDPC)
                  007feea0    00000010     libdpm_xwr18xx.ae674 : dpm_core.oe674 ($Tramp$S$$DPM_stop)
                  007feeb0    00000010                          : dpm_core.oe674 ($Tramp$S$$DPM_notifyExecute)
                  007feec0    00000080     main.oe674 (.text:ObjectDetection_Test_stopDPC)
                  007fef40    00000010     rts6740_elf.lib : _printfi.c.obj ($Tramp$S$$__TI_printfi)
                  007fef50    00000010     libtestlogger_xwr18xx.ae674 : logger.oe674 ($Tramp$S$$MCPI_Initialize)
                  007fef60    00000080     libosal_xwr18xx.ae674 : SemaphoreP_tirtos.oe674 (.text:SemaphoreP_create)
                  007fefe0    00000080     rts6740_elf.lib : trgmsg.c.obj (.text:__TI_readmsg)
                  007ff060    00000080                     : fixdu.c.obj (.text:__c6xabi_fixdu)
                  007ff0e0    00000080                     : llshift.c.obj (.text:__c6xabi_llshl)
                  007ff160    00000080                     : snprintf.c.obj (.text:_outs)
                  007ff1e0    00000080     sysbios.ae674 : c62_TaskSupport_asm.obj (.text:_ti_sysbios_family_c62_TaskSupport_swap__E)
                  007ff260    00000080     librangeproc_hwa_xwr18xx.ae674 : rangeprochwa.oe674 (.text:rangeProcHWA_ConfigEDMATranspose)
                  007ff2e0    00000080     rts6740_elf.lib : snprintf.c.obj (.text:snprintf)
                  007ff360    00000080     dss_pe674.oe674 (.text:ti_sysbios_BIOS_atExitFunc__I)
                  007ff3e0    00000080     dss_pe674.oe674 (.text:ti_sysbios_BIOS_registerRTSLock__I)
                  007ff460    00000080     dss_pe674.oe674 (.text:ti_sysbios_gates_GateHwi_Object__create__S)
                  007ff4e0    00000080     dss_pe674.oe674 (.text:ti_sysbios_gates_GateMutex_Object__create__S)
                  007ff560    00000080     dss_pe674.oe674 (.text:ti_sysbios_heaps_HeapMem_Object__create__S)
                  007ff5e0    00000080     sysbios.ae674 : BIOS.obj (.text:ti_sysbios_heaps_HeapMem_init__I)
                  007ff660    00000080     dss_pe674.oe674 (.text:ti_sysbios_knl_Clock_doTick__I)
                  007ff6e0    00000080     sysbios.ae674 : BIOS.obj (.text:ti_sysbios_knl_Idle_run__E)
                  007ff760    00000080     dss_pe674.oe674 (.text:ti_sysbios_knl_Semaphore_create)
                  007ff7e0    00000080     sysbios.ae674 : BIOS.obj (.text:ti_sysbios_knl_Swi_post__E)
                  007ff860    00000080                   : BIOS.obj (.text:ti_sysbios_knl_Swi_startup__E)
                  007ff8e0    00000080                   : BIOS.obj (.text:ti_sysbios_knl_Task_processVitalTaskFlag__I)
                  007ff960    00000080                   : BIOS.obj (.text:ti_sysbios_knl_Task_restore__E)
                  007ff9e0    00000080                   : BIOS.obj (.text:ti_sysbios_knl_Task_sleepTimeout__I)
                  007ffa60    00000080     dss_pe674.oe674 (.text:ti_sysbios_rts_MemAlloc_alloc)
                  007ffae0    00000080     sysbios.ae674 : BIOS.obj (.text:ti_sysbios_timers_rti_Timer_setPeriod__E)
                  007ffb60    00000080                   : BIOS.obj (.text:ti_sysbios_timers_rti_Timer_stop__E)
                  007ffbe0    00000080     rts6740_elf.lib : unlink.c.obj (.text:unlink)
                  007ffc60    00000080     sysbios.ae674 : BIOS.obj (.text:xdc_runtime_System_avprintf__E)
                  007ffce0    00000080                   : BIOS.obj (.text:xdc_runtime_System_vprintf__E)
                  007ffd60    00000060     libaoaproc_hwa_xwr18xx.ae674 : aoaprochwa.oe674 (.text:AOAHWA_waitEdma)
                  007ffdc0    00000060     libcfarcaproc_hwa_xwr18xx.ae674 : cfarcaprochwa.oe674 (.text:CFARHWA_triggerCFAR)
                  007ffe20    00000060     objectdetection.oe674 (.text:DPC_ObjDet_GenDopplerWindow)
                  007ffe80    00000060     objectdetection.oe674 (.text:DPC_ObjDet_MemPoolAlloc)
                  007ffee0    00000020     libaoaproc_hwa_xwr18xx.ae674 : aoaprochwa.oe674 (.text:AOAProcHWADoneIsrCallback)
                  007fff00    00000010     libdpm_xwr18xx.ae674 : dpm_core.oe674 ($Tramp$S$$DPM_execute)
                  007fff10    00000010     rts6740_elf.lib : imath64.c.obj ($Tramp$S$$__c6xabi_divull)
                  007fff20    00000010     libdpm_xwr18xx.ae674 : dpm_core.oe674 ($Tramp$S$$DPM_init)
                  007fff30    00000010     rts6740_elf.lib : atan.c.obj ($Tramp$S$$atan)
                  007fff40    00000010                     : divd.c.obj ($Tramp$S$$__c6xabi_divd)
                  007fff50    00000010     libtestlogger_xwr18xx.ae674 : logger.oe674 ($Tramp$S$$MCPI_setTestResult)
                  007fff60    00000010     rts6740_elf.lib : fclose.c.obj ($Tramp$S$$fclose)
                  007fff70    00000010     libtestlogger_xwr18xx.ae674 : logger.oe674 ($Tramp$S$$MCPI_setFeatureTestResult)
                  007fff80    00000010     gen_frame_data.oe674 ($Tramp$S$$genChirpData)
                  007fff90    00000010     gen_frame_data.oe674 ($Tramp$S$$initFrameData)
                  007fffa0    00000010     libdpm_xwr18xx.ae674 : dpm_core.oe674 ($Tramp$S$$DPM_ioctl)
                  007fffb0    00000010     rts6740_elf.lib : fread.c.obj ($Tramp$S$$fread)
                  007fffc0    00000010                     : fopen.c.obj ($Tramp$S$$fopen)
                  007fffd0    00000010     --HOLE-- [fill = 00000000]

.text.2    0    00800000    00002e20     
                  00800000    00000060     libaoaproc_hwa_xwr18xx.ae674 : aoaprochwa.oe674 (.text:DPU_AoAProcHWA_deinit)
                  00800060    00000060     libcfarcaproc_hwa_xwr18xx.ae674 : cfarcaprochwa.oe674 (.text:DPU_CFARCAProcHWA_deinit)
                  008000c0    00000060     libdopplerproc_hwa_xwr18xx.ae674 : dopplerprochwa.oe674 (.text:DPU_DopplerProcHWA_deinit)
                  00800120    00000060     libstaticclutterproc_xwr18xx.ae674 : staticclutterproc.oe674 (.text:DPU_StaticClutterProc_deinit)
                  00800180    00000060     libedma_xwr18xx.ae674 : edma_low_level.oe674 (.text:EDMA3ClrEvt)
                  008001e0    00000060                           : edma_low_level.oe674 (.text:EDMA3ClrIntr)
                  00800240    00000060                           : edma_low_level.oe674 (.text:EDMA3ClrMissEvt)
                  008002a0    00000060                           : edma_low_level.oe674 (.text:EDMA3DisableEvtIntr)
                  00800300    00000060                           : edma_low_level.oe674 (.text:EDMA3EnableDmaEvt)
                  00800360    00000060                           : edma_low_level.oe674 (.text:EDMA3EnableEvtIntr)
                  008003c0    00000060                           : edma_low_level.oe674 (.text:EDMA3SetEvt)
                  00800420    00000060                           : edma.oe674 (.text:EDMA_configTransferControllerError)
                  00800480    00000060                           : edma.oe674 (.text:EDMA_isError)
                  008004e0    00000060                           : edma.oe674 (.text:EDMA_setDestinationAddress)
                  00800540    00000060                           : edma.oe674 (.text:EDMA_setSourceAddress)
                  008005a0    00000060                           : edma.oe674 (.text:EDMA_validate_channelIdchannelType)
                  00800600    00000060     libhwa_xwr18xx.ae674 : hwa.oe674 (.text:HWA_allParamDoneISR)
                  00800660    00000060     libmailbox_xwr18xx.ae674 : mailbox.oe674 (.text:Mailbox_Config_init)
                  008006c0    00000060     main.oe674 (.text:ObjectDetection_Test_EDMA_errorCallbackFxn)
                  00800720    00000060     main.oe674 (.text:ObjectDetection_Test_EDMA_transferControllerErrorCallbackFxn)
                  00800780    00000060     main.oe674 (.text:ObjectDetection_Test_hwaClose)
                  008007e0    00000060     libsoc_xwr18xx.ae674 : soc_xwr18xx.oe674 (.text:SOC_enableHWA)
                  00800840    00000060                          : soc_xwr18xx.oe674 (.text:SOC_setDSSLinkState)
                  008008a0    00000060                          : soc.oe674 (.text:SOC_unhaltBSS)
                  00800900    00000060     rts6740_elf.lib : trgmsg.c.obj (.text:__TI_writemsg)
                  00800960    00000060                     : llshift.c.obj (.text:__c6xabi_llshru)
                  008009c0    00000060     sysbios.ae674 : c64p_Hwi_asm_switch.obj (.text:_ti_sysbios_family_c64p_Hwi_switchAndDispatch__I)
                  00800a20    00000060                   : c64p_Hwi_asm_switch.obj (.text:_ti_sysbios_family_xxx_Hwi_switchAndRunFunc)
                  00800a80    00000060     rts6740_elf.lib : lseek.c.obj (.text:lseek)
                  00800ae0    00000060                     : memccpy.c.obj (.text:memccpy)
                  00800b40    00000060     libmmwavealg_xwr18xx.ae674 : mmwavelib_vecsubc.oe674 (.text:mmwavelib_vecsubc)
                  00800ba0    00000060     rts6740_elf.lib : read.c.obj (.text:read)
                  00800c00    00000060                     : sprintf.c.obj (.text:sprintf)
                  00800c60    00000060     dss_pe674.oe674 (.text:ti_sysbios_BIOS_errorRaiseHook__I)
                  00800cc0    00000060     dss_pe674.oe674 (.text:ti_sysbios_BIOS_removeRTSLock__I)
                  00800d20    00000060     dss_pe674.oe674 (.text:ti_sysbios_BIOS_startFunc__I)
                  00800d80    00000060     sysbios.ae674 : BIOS.obj (.text:ti_sysbios_family_c62_TaskSupport_start__E)
                  00800de0    00000060                   : BIOS.obj (.text:ti_sysbios_family_c64p_Cache_setMar__E)
                  00800e40    00000060                   : BIOS.obj (.text:ti_sysbios_family_c64p_EventCombiner_Module_startup__E)
                  00800ea0    00000060                   : BIOS.obj (.text:ti_sysbios_family_c64p_EventCombiner_unused__E)
                  00800f00    00000060     dss_pe674.oe674 (.text:ti_sysbios_gates_GateMutex_Object__delete__S)
                  00800f60    00000060     sysbios.ae674 : BIOS.obj (.text:ti_sysbios_hal_Hwi_initStack)
                  00800fc0    00000060                   : BIOS.obj (.text:ti_sysbios_heaps_HeapMem_free__E)
                  00801020    00000060                   : BIOS.obj (.text:ti_sysbios_knl_Clock_Module_startup__E)
                  00801080    00000060     dss_pe674.oe674 (.text:ti_sysbios_knl_Queue_construct)
                  008010e0    00000060     dss_pe674.oe674 (.text:ti_sysbios_knl_Semaphore_Object__delete__S)
                  00801140    00000060     dss_pe674.oe674 (.text:ti_sysbios_knl_Semaphore_construct)
                  008011a0    00000060     sysbios.ae674 : BIOS.obj (.text:ti_sysbios_knl_Swi_Module_startup__E)
                  00801200    00000060                   : BIOS.obj (.text:ti_sysbios_knl_Task_enter__I)
                  00801260    00000060     rts6740_elf.lib : write.c.obj (.text:write)
                  008012c0    00000060     sysbios.ae674 : BIOS.obj (.text:xdc_runtime_SysStd_abort__E)
                  00801320    00000040     libhwa_xwr18xx.ae674 : hwa.oe674 (.text:CSL_FEXTR)
                  00801360    00000040     libsoc_xwr18xx.ae674 : soc.oe674 (.text:CSL_FEXTR)
                  008013a0    00000040                          : soc_xwr18xx.oe674 (.text:CSL_FEXTR)
                  008013e0    00000040     libhwa_xwr18xx.ae674 : hwa.oe674 (.text:CSL_FINSR)
                  00801420    00000040     libmailbox_xwr18xx.ae674 : mailbox.oe674 (.text:CSL_FINSR)
                  00801460    00000040     libsoc_xwr18xx.ae674 : soc.oe674 (.text:CSL_FINSR)
                  008014a0    00000040                          : soc_xwr18xx.oe674 (.text:CSL_FINSR)
                  008014e0    00000040                          : soc_xwr18xx_dss.oe674 (.text:CSL_FINSR)
                  00801520    00000040     objectdetection.oe674 (.text:DPC_ObjDet_GenRangeWindow)
                  00801560    00000040     libedma_xwr18xx.ae674 : edma_low_level.oe674 (.text:EDMA3DisableDmaEvt)
                  008015a0    00000040                           : edma_low_level.oe674 (.text:EDMA3MapQdmaChToPaRAM)
                  008015e0    00000040                           : edma_low_level.oe674 (.text:EDMA3SetPaRAM)
                  00801620    00000040                           : edma_low_level.oe674 (.text:EDMA3SetQdmaTrigWord)
                  00801660    00000040     libosal_xwr18xx.ae674 : HwiP_tirtos.oe674 (.text:HwiP_create)
                  008016a0    00000040                           : HwiP_tirtos.oe674 (.text:HwiP_delete)
                  008016e0    00000040     libmailbox_xwr18xx.ae674 : mailbox.oe674 (.text:Mailbox_boxEmptyISRBss)
                  00801720    00000040                              : mailbox.oe674 (.text:Mailbox_boxEmptyISRMssDss)
                  00801760    00000040                              : mailbox.oe674 (.text:Mailbox_boxFullISRBss)
                  008017a0    00000040     main.oe674 (.text:ObjectDetection_Test_edmaClose)
                  008017e0    00000040     libsoc_xwr18xx.ae674 : soc_xwr18xx_dss.oe674 (.text:SOC_getInAddr_LUTType)
                  00801820    00000040                          : soc_xwr18xx_dss.oe674 (.text:SOC_getOutAddr_LUTType)
                  00801860    00000040                          : soc_xwr18xx.oe674 (.text:SOC_isMSSOperational)
                  008018a0    00000040     rts6740_elf.lib : frcmpyd_div.c.obj (.text:__TI_frcmpyd_div)
                  008018e0    00000040                     : isinf.c.obj (.text:__c6xabi_isinf)
                  00801920    00000040                     : strasg.asm.obj (.text:__strasgi_64plus)
                  00801960    00000040                     : args_main.c.obj (.text:_args_main)
                  008019a0    00000040                     : snprintf.c.obj (.text:_outc)
                  008019e0    00000040                     : sprintf.c.obj (.text:_outs)
                  00801a20    00000040     sysbios.ae674 : c62_TaskSupport_asm.obj (.text:_ti_sysbios_family_c62_TaskSupport_buildTaskStack)
                  00801a60    00000040     dss_pe674.oe674 (.text:free)
                  00801aa0    00000040     libmathutils.ae674 : mathutils.oe674 (.text:mathUtils_pow2roundup)
                  00801ae0    00000040     librangeproc_hwa_xwr18xx.ae674 : rangeprochwa.oe674 (.text:rangeProcHWA_EDMA_transferCompletionCallbackFxn)
                  00801b20    00000040     dss_pe674.oe674 (.text:ti_sysbios_BIOS_exitFunc__I)
                  00801b60    00000040     dss_pe674.oe674 (.text:ti_sysbios_BIOS_rtsLock__I)
                  00801ba0    00000040     dss_pe674.oe674 (.text:ti_sysbios_BIOS_rtsUnlock__I)
                  00801be0    00000040     sysbios.ae674 : BIOS.obj (.text:ti_sysbios_family_c64p_Hwi_disableInterrupt__E)
                  00801c20    00000040                   : BIOS.obj (.text:ti_sysbios_family_c64p_Hwi_enableInterrupt__E)
                  00801c60    00000040     dss_pe674.oe674 (.text:ti_sysbios_gates_GateHwi_Handle__label__S)
                  00801ca0    00000040     dss_pe674.oe674 (.text:ti_sysbios_gates_GateHwi_Object__delete__S)
                  00801ce0    00000040     dss_pe674.oe674 (.text:ti_sysbios_gates_GateMutex_Handle__label__S)
                  00801d20    00000040     sysbios.ae674 : BIOS.obj (.text:ti_sysbios_gates_GateMutex_Instance_init__E)
                  00801d60    00000040                   : BIOS.obj (.text:ti_sysbios_gates_GateMutex_leave__E)
                  00801da0    00000040     dss_pe674.oe674 (.text:ti_sysbios_heaps_HeapMem_Handle__label__S)
                  00801de0    00000040     dss_pe674.oe674 (.text:ti_sysbios_heaps_HeapMem_Object__delete__S)
                  00801e20    00000040     dss_pe674.oe674 (.text:ti_sysbios_heaps_HeapMem_Object__get__S)
                  00801e60    00000040     dss_pe674.oe674 (.text:ti_sysbios_knl_Semaphore_destruct)
                  00801ea0    00000040     dss_pe674.oe674 (.text:ti_sysbios_knl_Swi_Object__get__S)
                  00801ee0    00000040     dss_pe674.oe674 (.text:ti_sysbios_knl_Task_Object__get__S)
                  00801f20    00000040     sysbios.ae674 : BIOS.obj (.text:ti_sysbios_timers_rti_Timer_periodicStub__E)
                  00801f60    00000040     rts6740_elf.lib : wcslen.c.obj (.text:wcslen)
                  00801fa0    00000040     sysbios.ae674 : BIOS.obj (.text:xdc_runtime_Error_init__E)
                  00801fe0    00000040     dss_pe674.oe674 (.text:xdc_runtime_System_aprintf__E)
                  00802020    00000040     dss_pe674.oe674 (.text:xdc_runtime_System_printf__E)
                  00802060    00000020     libcfarcaproc_hwa_xwr18xx.ae674 : cfarcaprochwa.oe674 (.text:CFARCAHWADoneIsrCallback)
                  00802080    00000020     objectdetection.oe674 (.text:DPC_ObjDet_GetRangeWinGenLen)
                  008020a0    00000020     objectdetection.oe674 (.text:DPC_ObjDet_MemPoolReset)
                  008020c0    00000020     libdopplerproc_hwa_xwr18xx.ae674 : dopplerprochwa.oe674 (.text:DPU_DopplerProcHWA_edmaDoneIsrCallback)
                  008020e0    00000020                                      : dopplerprochwa.oe674 (.text:DPU_DopplerProcHWA_hwaDoneIsrCallback)
                  00802100    00000020     libedma_xwr18xx.ae674 : edma_low_level.oe674 (.text:EDMA3ChannelToParamMap)
                  00802120    00000020                           : edma_low_level.oe674 (.text:EDMA3ClrCCErr)
                  00802140    00000020                           : edma_low_level.oe674 (.text:EDMA3DisableQdmaEvt)
                  00802160    00000020                           : edma_low_level.oe674 (.text:EDMA3EnableQdmaEvt)
                  00802180    00000020                           : edma_low_level.oe674 (.text:EDMA3ErrIntrHighStatusGet)
                  008021a0    00000020                           : edma_low_level.oe674 (.text:EDMA3GetCCErrStatus)
                  008021c0    00000020                           : edma_low_level.oe674 (.text:EDMA3GetErrIntrStatus)
                  008021e0    00000020                           : edma_low_level.oe674 (.text:EDMA3GetIntrStatus)
                  00802200    00000020                           : edma_low_level.oe674 (.text:EDMA3IntrStatusHighGet)
                  00802220    00000020                           : edma_low_level.oe674 (.text:EDMA3QdmaClrMissEvt)
                  00802240    00000020                           : edma_low_level.oe674 (.text:EDMA3QdmaGetErrIntrStatus)
                  00802260    00000020                           : edma.oe674 (.text:EDMA_getNumInstances)
                  00802280    00000020                           : edma_low_level.oe674 (.text:EDMAsetRegion)
                  008022a0    00000020     libhwa_xwr18xx.ae674 : hwa.oe674 (.text:HWA_init)
                  008022c0    00000020     libosal_xwr18xx.ae674 : HwiP_tirtos.oe674 (.text:HwiP_Params_init)
                  008022e0    00000020                           : HwiP_tirtos.oe674 (.text:HwiP_disable)
                  00802300    00000020                           : HwiP_tirtos.oe674 (.text:HwiP_disableInterrupt)
                  00802320    00000020                           : HwiP_tirtos.oe674 (.text:HwiP_enableInterrupt)
                  00802340    00000020                           : HwiP_tirtos.oe674 (.text:HwiP_restore)
                  00802360    00000020                           : MemoryP_tirtos.oe674 (.text:MemoryP_ctrlAlloc)
                  00802380    00000020                           : MemoryP_tirtos.oe674 (.text:MemoryP_ctrlFree)
                  008023a0    00000020                           : MemoryP_tirtos.oe674 (.text:MemoryP_getStats)
                  008023c0    00000020                           : SemaphoreP_tirtos.oe674 (.text:SemaphoreP_Params_init)
                  008023e0    00000020                           : SemaphoreP_tirtos.oe674 (.text:SemaphoreP_delete)
                  00802400    00000020                           : SemaphoreP_tirtos.oe674 (.text:SemaphoreP_pend)
                  00802420    00000020                           : SemaphoreP_tirtos.oe674 (.text:SemaphoreP_post)
                  00802440    00000020                           : DebugP_tirtos.oe674 (.text:_DebugP_assert)
                  00802460    00000020     rts6740_elf.lib : errno.c.obj (.text:__c6xabi_errno_addr)
                  00802480    00000020                     : trunc.c.obj (.text:__c6xabi_trunc)
                  008024a0    00000020                     : push.asm.obj (.text:__pop_rts)
                  008024c0    00000020                     : push.asm.obj (.text:__push_rts)
                  008024e0    00000020                     : _lock.c.obj (.text:_nop)
                  00802500    00000020                     : printf.c.obj (.text:_outc)
                  00802520    00000020                     : sprintf.c.obj (.text:_outc)
                  00802540    00000020                     : printf.c.obj (.text:_outs)
                  00802560    00000020                     : _lock.c.obj (.text:_register_lock)
                  00802580    00000020                     : _lock.c.obj (.text:_register_unlock)
                  008025a0    00000020                     : signbit.c.obj (.text:_signbit)
                  008025c0    00000020     sysbios.ae674 : c62_TaskSupport_asm.obj (.text:_ti_sysbios_family_c62_TaskSupport_glue)
                  008025e0    00000020     rts6740_elf.lib : exit.c.obj (.text:abort)
                  00802600    00000020                     : llabs.c.obj (.text:llabs)
                  00802620    00000020     libmathutils.ae674 : mathutils.oe674 (.text:mathUtils_ceilLog2)
                  00802640    00000020                        : mathutils.oe674 (.text:mathUtils_floorLog2)
                  00802660    00000020     rts6740_elf.lib : fputc.c.obj (.text:putchar)
                  00802680    00000020     librangeproc_hwa_xwr18xx.ae674 : rangeprochwa.oe674 (.text:rangeProcHWADoneIsrCallback)
                  008026a0    00000020     dss_pe674.oe674 (.text:ti_sysbios_BIOS_RtsGateProxy_enter__E)
                  008026c0    00000020     dss_pe674.oe674 (.text:ti_sysbios_BIOS_RtsGateProxy_leave__E)
                  008026e0    00000020     sysbios.ae674 : BIOS.obj (.text:ti_sysbios_BIOS_exit__E)
                  00802700    00000020                   : BIOS.obj (.text:ti_sysbios_BIOS_getCpuFreq__E)
                  00802720    00000020                   : BIOS.obj (.text:ti_sysbios_BIOS_linkedWithIncorrectBootLibrary__E)
                  00802740    00000020     dss_pe674.oe674 (.text:ti_sysbios_BIOS_nullFunc__I)
                  00802760    00000020     sysbios.ae674 : BIOS.obj (.text:ti_sysbios_BIOS_setThreadType__E)
                  00802780    00000020                   : BIOS.obj (.text:ti_sysbios_BIOS_start__E)
                  008027a0    00000020     dss_pe674.oe674 (.text:ti_sysbios_family_c62_TaskSupport_Module__startupDone__S)
                  008027c0    00000020     sysbios.ae674 : BIOS.obj (.text:ti_sysbios_family_c62_TaskSupport_checkStack__E)
                  008027e0    00000020                   : BIOS.obj (.text:ti_sysbios_family_c62_TaskSupport_getStackAlignment__E)
                  00802800    00000020     dss_pe674.oe674 (.text:ti_sysbios_family_c64p_Hwi_Module__startupDone__F)
                  00802820    00000020     sysbios.ae674 : BIOS.obj (.text:ti_sysbios_family_c64p_Hwi_clearInterrupt__E)
                  00802840    00000020                   : BIOS.obj (.text:ti_sysbios_family_c64p_Hwi_startup__E)
                  00802860    00000020                   : BIOS.obj (.text:ti_sysbios_family_c64p_Hwi_switchFromBootStack__E)
                  00802880    00000020                   : BIOS.obj (.text:ti_sysbios_family_c64p_TimestampProvider_Module_startup__E)
                  008028a0    00000020                   : BIOS.obj (.text:ti_sysbios_family_c64p_TimestampProvider_get32__E)
                  008028c0    00000020                   : BIOS.obj (.text:ti_sysbios_gates_GateHwi_Instance_init__E)
                  008028e0    00000020                   : BIOS.obj (.text:ti_sysbios_gates_GateHwi_enter__E)
                  00802900    00000020                   : BIOS.obj (.text:ti_sysbios_gates_GateHwi_leave__E)
                  00802920    00000020                   : BIOS.obj (.text:ti_sysbios_gates_GateHwi_query__E)
                  00802940    00000020                   : BIOS.obj (.text:ti_sysbios_gates_GateMutex_Instance_finalize__E)
                  00802960    00000020                   : BIOS.obj (.text:ti_sysbios_gates_GateMutex_query__E)
                  00802980    00000020                   : BIOS.obj (.text:ti_sysbios_hal_Hwi_Module_startup__E)
                  008029a0    00000020     dss_pe674.oe674 (.text:ti_sysbios_heaps_HeapBuf_Object__get__S)
                  008029c0    00000020     dss_pe674.oe674 (.text:ti_sysbios_heaps_HeapMem_Module_GateProxy_enter__E)
                  008029e0    00000020     dss_pe674.oe674 (.text:ti_sysbios_heaps_HeapMem_Module_GateProxy_leave__E)
                  00802a00    00000020     sysbios.ae674 : BIOS.obj (.text:ti_sysbios_heaps_HeapMem_isBlocking__E)
                  00802a20    00000020     dss_pe674.oe674 (.text:ti_sysbios_knl_Clock_TimerProxy_getMaxTicks__E)
                  00802a40    00000020     sysbios.ae674 : BIOS.obj (.text:ti_sysbios_knl_Clock_logTick__E)
                  00802a60    00000020                   : BIOS.obj (.text:ti_sysbios_knl_Idle_loop__E)
                  00802a80    00000020                   : BIOS.obj (.text:ti_sysbios_knl_Queue_Instance_init__E)
                  00802aa0    00000020     dss_pe674.oe674 (.text:ti_sysbios_knl_Queue_Object__get__S)
                  00802ac0    00000020     dss_pe674.oe674 (.text:ti_sysbios_knl_Queue_destruct)
                  00802ae0    00000020     sysbios.ae674 : BIOS.obj (.text:ti_sysbios_knl_Queue_empty__E)
                  00802b00    00000020                   : BIOS.obj (.text:ti_sysbios_knl_Semaphore_Instance_finalize__E)
                  00802b20    00000020     dss_pe674.oe674 (.text:ti_sysbios_knl_Semaphore_Params__init__S)
                  00802b40    00000020     dss_pe674.oe674 (.text:ti_sysbios_knl_Semaphore_delete)
                  00802b60    00000020     sysbios.ae674 : BIOS.obj (.text:ti_sysbios_knl_Swi_disable__E)
                  00802b80    00000020     dss_pe674.oe674 (.text:ti_sysbios_knl_Task_Params__init__S)
                  00802ba0    00000020     sysbios.ae674 : BIOS.obj (.text:ti_sysbios_knl_Task_disable__E)
                  00802bc0    00000020                   : BIOS.obj (.text:ti_sysbios_knl_Task_startup__E)
                  00802be0    00000020     dss_pe674.oe674 (.text:ti_sysbios_timers_rti_Timer_Module__startupDone__F)
                  00802c00    00000020     sysbios.ae674 : BIOS.obj (.text:ti_sysbios_timers_rti_Timer_getMaxTicks__E)
                  00802c20    00000020                   : BIOS.obj (.text:ti_sysbios_utils_Load_taskRegHook__E)
                  00802c40    00000020     dss_pe674.oe674 (.text:xdc_runtime_IHeap_alloc)
                  00802c60    00000020     dss_pe674.oe674 (.text:xdc_runtime_IHeap_free)
                  00802c80    00000020     dss_pe674.oe674 (.text:xdc_runtime_IHeap_getStats)
                  00802ca0    00000020     sysbios.ae674 : BIOS.obj (.text:xdc_runtime_Memory_free__E)
                  00802cc0    00000020                   : BIOS.obj (.text:xdc_runtime_Memory_getStats__E)
                  00802ce0    00000020     dss_pe674.oe674 (.text:xdc_runtime_Startup_exec__I)
                  00802d00    00000020     dss_pe674.oe674 (.text:xdc_runtime_Startup_reset__I)
                  00802d20    00000020     sysbios.ae674 : BIOS.obj (.text:xdc_runtime_Startup_rtsDone__E)
                  00802d40    00000020                   : BIOS.obj (.text:xdc_runtime_SysStd_exit__E)
                  00802d60    00000020                   : BIOS.obj (.text:xdc_runtime_SysStd_putch__E)
                  00802d80    00000020                   : BIOS.obj (.text:xdc_runtime_SysStd_ready__E)
                  00802da0    00000020     dss_pe674.oe674 (.text:xdc_runtime_System_Module_GateProxy_enter__E)
                  00802dc0    00000020     dss_pe674.oe674 (.text:xdc_runtime_System_Module_GateProxy_leave__E)
                  00802de0    00000020     sysbios.ae674 : BIOS.obj (.text:xdc_runtime_System_Module_startup__E)
                  00802e00    00000020     dss_pe674.oe674 (.text:xdc_runtime_Text_visitRope__I)

.l2Heap    0    00802e20    0000a000     UNINITIALIZED
                  00802e20    0000a000     main.oe674 (.l2Heap)

systemHeap 
*          0    0080ce20    00008000     UNINITIALIZED
                  0080ce20    00008000     dss_pe674.oe674 (systemHeap)

.far       0    00814e20    00005fdc     UNINITIALIZED
                  00814e20    00005220     (.common:gGenFrameDataObj)
                  0081a040    000004d8     libedma_xwr18xx.ae674 : edma.oe674 (.far:EDMA_object)
                  0081a518    00000400     dss_pe674.oe674 (.far:taskStackSection)
                  0081a918    00000384     (.common:gDataPathObj)
                  0081ac9c    00000004     --HOLE--
                  0081aca0    00000140     (.common:__TI_tmpnams)
                  0081ade0    00000010     (.common:edmaDbg)
                  0081adf0    00000008     (.common:parmbuf)
                  0081adf8    00000004     (.common:ti_sysbios_knl_Task_Instance_State_0_hookEnv__A)

.cio       0    0081b600    00000120     UNINITIALIZED
                  0081b600    00000120     rts6740_elf.lib : trgmsg.c.obj (.cio)

.const     0    0081b750    00003344     
                  0081b750    00001a46     dss_pe674.oe674 (.const:xdc_runtime_Text_charTab__A)
                  0081d196    00000002     dss_pe674.oe674 (.const:ti_sysbios_family_c64p_Cache_Module__id__C)
                  0081d198    00000880     main.oe674 (.const:.string)
                  0081da18    00000630     sysbios.ae674 : BIOS.obj (.const:.string)
                  0081e048    00000101     rts6740_elf.lib : ctype.c.obj (.const:.string:_ctypes_)
                  0081e149    00000001     --HOLE-- [fill = 0]
                  0081e14a    00000002     dss_pe674.oe674 (.const:ti_sysbios_family_c64p_EventCombiner_Module__id__C)
                  0081e14c    00000004     dss_pe674.oe674 (.const:ti_sysbios_family_c62_TaskSupport_stackAlignment__C)
                  0081e150    000000dc     dss_pe674.oe674 (.const:xdc_runtime_Text_nodeTab__A)
                  0081e22c    00000094     libtestlogger_xwr18xx.ae674 : logger.oe674 (.const:.string)
                  0081e2c0    00000074     dss_pe674.oe674 (.const:.string)
                  0081e334    00000058     libedma_xwr18xx.ae674 : edma.oe674 (.const:.string)
                  0081e38c    0000004c     libmailbox_xwr18xx.ae674 : mailbox.oe674 (.const:.string)
                  0081e3d8    00000044     dss_pe674.oe674 (.const:ti_sysbios_knl_Task_Object__PARAMS__C)
                  0081e41c    00000004     dss_pe674.oe674 (.const:ti_sysbios_family_c64p_Cache_E_invalidL1CacheSize__C)
                  0081e420    00000040     libhwa_xwr18xx.ae674 : hwa.oe674 (.const:gHwaTrigSignatures)
                  0081e460    0000003c     libsoc_xwr18xx.ae674 : soc_xwr18xx_dss.oe674 (.const:.string)
                  0081e49c    00000004     dss_pe674.oe674 (.const:ti_sysbios_family_c64p_Cache_E_invalidL2CacheSize__C)
                  0081e4a0    00000038     libedma_xwr18xx.ae674 : edma_xwr1xxx.oe674 (.const:gEdmaHwAttrs)
                  0081e4d8    00000030     dss_pe674.oe674 (.const:xdc_runtime_Startup_sfxnTab__A)
                  0081e508    0000002c     gen_frame_data.oe674 (.const:.string)
                  0081e534    00000004     dss_pe674.oe674 (.const:ti_sysbios_family_c64p_Cache_MAR0_31__C)
                  0081e538    00000028     libdpm_xwr18xx.ae674 : dpm_msg.oe674 (.const:gDPMMessageFxnTable)
                  0081e560    00000028     dss_pe674.oe674 (.const:ti_sysbios_heaps_HeapMem_Module__FXNS__C)
                  0081e588    00000024     rts6740_elf.lib : _printfi.c.obj (.const:.string)
                  0081e5ac    00000024     libmailbox_xwr18xx.ae674 : mailbox.oe674 (.const:Mailbox_defaultCfg)
                  0081e5d0    00000024     dss_pe674.oe674 (.const:ti_sysbios_gates_GateHwi_Module__FXNS__C)
                  0081e5f4    00000024     dss_pe674.oe674 (.const:ti_sysbios_gates_GateMutex_Module__FXNS__C)
                  0081e618    00000024     dss_pe674.oe674 (.const:ti_sysbios_heaps_HeapMem_Object__PARAMS__C)
                  0081e63c    00000024     dss_pe674.oe674 (.const:ti_sysbios_knl_Semaphore_Object__PARAMS__C)
                  0081e660    00000020     libhwa_xwr18xx.ae674 : hwa.oe674 (.const:$P$T0$1)
                  0081e680    00000020                          : hwa.oe674 (.const:.string)
                  0081e6a0    00000020     libosal_xwr18xx.ae674 : SemaphoreP_tirtos.oe674 (.const:.string)
                  0081e6c0    00000020     dss_pe674.oe674 (.const:ti_sysbios_gates_GateHwi_Object__DESC__C)
                  0081e6e0    00000020     dss_pe674.oe674 (.const:ti_sysbios_gates_GateMutex_Object__DESC__C)
                  0081e700    00000020     dss_pe674.oe674 (.const:ti_sysbios_heaps_HeapMem_Object__DESC__C)
                  0081e720    00000020     dss_pe674.oe674 (.const:ti_sysbios_knl_Queue_Object__DESC__C)
                  0081e740    00000020     dss_pe674.oe674 (.const:ti_sysbios_knl_Semaphore_Object__DESC__C)
                  0081e760    00000020     dss_pe674.oe674 (.const:ti_sysbios_knl_Task_Object__DESC__C)
                  0081e780    0000001c     libosal_xwr18xx.ae674 : HwiP_tirtos.oe674 (.const:.string)
                  0081e79c    00000018     objectdetection.oe674 (.const:.string)
                  0081e7b4    00000018     dss_pe674.oe674 (.const:ti_sysbios_gates_GateHwi_Object__PARAMS__C)
                  0081e7cc    00000018     dss_pe674.oe674 (.const:ti_sysbios_gates_GateMutex_Object__PARAMS__C)
                  0081e7e4    00000018     dss_pe674.oe674 (.const:ti_sysbios_knl_Queue_Object__PARAMS__C)
                  0081e7fc    00000004     dss_pe674.oe674 (.const:ti_sysbios_family_c64p_Cache_MAR128_159__C)
                  0081e800    00000018     dss_pe674.oe674 (.const:ti_sysbios_knl_Task_hooks__A)
                  0081e818    00000018     dss_pe674.oe674 (.const:xdc_runtime_Startup_sfxnRts__A)
                  0081e830    00000014     libdpm_xwr18xx.ae674 : dpm_mailbox.oe674 (.const:.string)
                  0081e844    00000010                          : dpm_core.oe674 (.const:.string)
                  0081e854    00000010                          : dpm_msg.oe674 (.const:.string)
                  0081e864    00000010                          : dpm_pipe.oe674 (.const:.string)
                  0081e874    00000004     dss_pe674.oe674 (.const:ti_sysbios_family_c64p_Cache_MAR160_191__C)
                  0081e878    00000010     libedma_xwr18xx.ae674 : edma.oe674 (.const:EDMA_config$1)
                  0081e888    00000010     dss_pe674.oe674 (.const:ti_sysbios_family_c64p_EventCombiner_EVTMASK__C)
                  0081e898    00000008     dss_pe674.oe674 (.const:ti_sysbios_knl_Idle_funcList__A)
                  0081e8a0    00000008     dss_pe674.oe674 (.const:ti_sysbios_knl_Idle_funcList__C)
                  0081e8a8    00000008     dss_pe674.oe674 (.const:ti_sysbios_knl_Task_hooks__C)
                  0081e8b0    00000008     dss_pe674.oe674 (.const:xdc_runtime_Startup_firstFxns__A)
                  0081e8b8    00000008     dss_pe674.oe674 (.const:xdc_runtime_Startup_firstFxns__C)
                  0081e8c0    00000008     dss_pe674.oe674 (.const:xdc_runtime_Startup_lastFxns__C)
                  0081e8c8    00000004     dss_pe674.oe674 (.const:ti_sysbios_family_c64p_Cache_MAR192_223__C)
                  0081e8cc    00000004     dss_pe674.oe674 (.const:ti_sysbios_family_c64p_Cache_MAR224_255__C)
                  0081e8d0    00000004     dss_pe674.oe674 (.const:ti_sysbios_family_c64p_Cache_MAR32_63__C)
                  0081e8d4    00000004     dss_pe674.oe674 (.const:ti_sysbios_family_c64p_Cache_MAR64_95__C)
                  0081e8d8    00000004     dss_pe674.oe674 (.const:ti_sysbios_family_c64p_Cache_MAR96_127__C)
                  0081e8dc    00000004     dss_pe674.oe674 (.const:ti_sysbios_family_c64p_EventCombiner_A_invalidEventId__C)
                  0081e8e0    00000004     dss_pe674.oe674 (.const:ti_sysbios_family_c64p_EventCombiner_EVTRegs__C)
                  0081e8e4    00000004     dss_pe674.oe674 (.const:ti_sysbios_family_c64p_EventCombiner_E_unpluggedEvent__C)
                  0081e8e8    00000004     dss_pe674.oe674 (.const:ti_sysbios_family_c64p_EventCombiner_Module__diagsEnabled__C)
                  0081e8ec    00000004     dss_pe674.oe674 (.const:ti_sysbios_family_c64p_EventCombiner_Module__diagsIncluded__C)
                  0081e8f0    00000004     dss_pe674.oe674 (.const:ti_sysbios_family_c64p_EventCombiner_Module__diagsMask__C)
                  0081e8f4    00000004     dss_pe674.oe674 (.const:ti_sysbios_family_c64p_Exception_E_exceptionMax__C)
                  0081e8f8    00000004     dss_pe674.oe674 (.const:ti_sysbios_family_c64p_Exception_exceptionHook__C)
                  0081e8fc    00000004     dss_pe674.oe674 (.const:ti_sysbios_family_c64p_Exception_externalHook__C)
                  0081e900    00000004     dss_pe674.oe674 (.const:ti_sysbios_family_c64p_Exception_internalHook__C)
                  0081e904    00000004     dss_pe674.oe674 (.const:ti_sysbios_family_c64p_Exception_nmiHook__C)
                  0081e908    00000004     dss_pe674.oe674 (.const:ti_sysbios_family_c64p_Hwi_INTRMUX1Address__C)
                  0081e90c    00000004     dss_pe674.oe674 (.const:ti_sysbios_gates_GateMutex_A_badContext__C)
                  0081e910    00000004     dss_pe674.oe674 (.const:ti_sysbios_gates_GateMutex_Instance_State_sem__O)
                  0081e914    00000004     dss_pe674.oe674 (.const:ti_sysbios_gates_GateMutex_Module__diagsEnabled__C)
                  0081e918    00000004     dss_pe674.oe674 (.const:ti_sysbios_gates_GateMutex_Module__diagsIncluded__C)
                  0081e91c    00000004     dss_pe674.oe674 (.const:ti_sysbios_gates_GateMutex_Module__diagsMask__C)
                  0081e920    00000004     dss_pe674.oe674 (.const:ti_sysbios_hal_Hwi_E_stackOverflow__C)
                  0081e924    00000004     dss_pe674.oe674 (.const:ti_sysbios_heaps_HeapBuf_Instance_State_freeList__O)
                  0081e928    00000004     dss_pe674.oe674 (.const:ti_sysbios_heaps_HeapBuf_Object__count__C)
                  0081e92c    00000004     dss_pe674.oe674 (.const:ti_sysbios_heaps_HeapBuf_numConstructedHeaps__C)
                  0081e930    00000004     dss_pe674.oe674 (.const:ti_sysbios_heaps_HeapMem_A_align__C)
                  0081e934    00000004     dss_pe674.oe674 (.const:ti_sysbios_heaps_HeapMem_A_heapSize__C)
                  0081e938    00000004     dss_pe674.oe674 (.const:ti_sysbios_heaps_HeapMem_A_invalidFree__C)
                  0081e93c    00000004     dss_pe674.oe674 (.const:ti_sysbios_heaps_HeapMem_A_zeroBlock__C)
                  0081e940    00000004     dss_pe674.oe674 (.const:ti_sysbios_heaps_HeapMem_E_memory__C)
                  0081e944    00000004     dss_pe674.oe674 (.const:ti_sysbios_heaps_HeapMem_Module__diagsEnabled__C)
                  0081e948    00000004     dss_pe674.oe674 (.const:ti_sysbios_heaps_HeapMem_Module__diagsIncluded__C)
                  0081e94c    00000004     dss_pe674.oe674 (.const:ti_sysbios_heaps_HeapMem_Module__diagsMask__C)
                  0081e950    00000004     dss_pe674.oe674 (.const:ti_sysbios_heaps_HeapMem_Module__gateObj__C)
                  0081e954    00000004     dss_pe674.oe674 (.const:ti_sysbios_heaps_HeapMem_Object__count__C)
                  0081e958    00000004     dss_pe674.oe674 (.const:ti_sysbios_heaps_HeapMem_reqAlign__C)
                  0081e95c    00000004     dss_pe674.oe674 (.const:ti_sysbios_knl_Clock_Module_State_clockQ__O)
                  0081e960    00000004     dss_pe674.oe674 (.const:ti_sysbios_knl_Semaphore_A_badContext__C)
                  0081e964    00000004     dss_pe674.oe674 (.const:ti_sysbios_knl_Semaphore_A_noEvents__C)
                  0081e968    00000004     dss_pe674.oe674 (.const:ti_sysbios_knl_Semaphore_A_overflow__C)
                  0081e96c    00000004     dss_pe674.oe674 (.const:ti_sysbios_knl_Semaphore_A_pendTaskDisabled__C)
                  0081e970    00000004     dss_pe674.oe674 (.const:ti_sysbios_knl_Semaphore_Instance_State_pendQ__O)
                  0081e974    00000004     dss_pe674.oe674 (.const:ti_sysbios_knl_Semaphore_Module__diagsEnabled__C)
                  0081e978    00000004     dss_pe674.oe674 (.const:ti_sysbios_knl_Semaphore_Module__diagsIncluded__C)
                  0081e97c    00000004     dss_pe674.oe674 (.const:ti_sysbios_knl_Semaphore_Module__diagsMask__C)
                  0081e980    00000004     dss_pe674.oe674 (.const:ti_sysbios_knl_Swi_Object__count__C)
                  0081e984    00000004     dss_pe674.oe674 (.const:ti_sysbios_knl_Task_A_badPriority__C)
                  0081e988    00000004     dss_pe674.oe674 (.const:ti_sysbios_knl_Task_A_badTaskState__C)
                  0081e98c    00000004     dss_pe674.oe674 (.const:ti_sysbios_knl_Task_A_badThreadType__C)
                  0081e990    00000004     dss_pe674.oe674 (.const:ti_sysbios_knl_Task_A_badTimeout__C)
                  0081e994    00000004     dss_pe674.oe674 (.const:ti_sysbios_knl_Task_A_noPendElem__C)
                  0081e998    00000004     dss_pe674.oe674 (.const:ti_sysbios_knl_Task_A_sleepTaskDisabled__C)
                  0081e99c    00000004     dss_pe674.oe674 (.const:ti_sysbios_knl_Task_E_spOutOfBounds__C)
                  0081e9a0    00000004     dss_pe674.oe674 (.const:ti_sysbios_knl_Task_E_stackOverflow__C)
                  0081e9a4    00000004     dss_pe674.oe674 (.const:ti_sysbios_knl_Task_Module_State_inactiveQ__O)
                  0081e9a8    00000004     dss_pe674.oe674 (.const:ti_sysbios_knl_Task_Module__diagsEnabled__C)
                  0081e9ac    00000004     dss_pe674.oe674 (.const:ti_sysbios_knl_Task_Module__diagsIncluded__C)
                  0081e9b0    00000004     dss_pe674.oe674 (.const:ti_sysbios_knl_Task_Module__diagsMask__C)
                  0081e9b4    00000004     dss_pe674.oe674 (.const:ti_sysbios_knl_Task_Object__count__C)
                  0081e9b8    00000004     dss_pe674.oe674 (.const:ti_sysbios_knl_Task_Object__heap__C)
                  0081e9bc    00000004     dss_pe674.oe674 (.const:ti_sysbios_knl_Task_allBlockedFunc__C)
                  0081e9c0    00000004     dss_pe674.oe674 (.const:ti_sysbios_knl_Task_defaultStackHeap__C)
                  0081e9c4    00000004     dss_pe674.oe674 (.const:ti_sysbios_knl_Task_defaultStackSize__C)
                  0081e9c8    00000004     dss_pe674.oe674 (.const:ti_sysbios_knl_Task_numConstructedTasks__C)
                  0081e9cc    00000004     dss_pe674.oe674 (.const:ti_sysbios_timers_rti_Timer_E_cannotSupport__C)
                  0081e9d0    00000004     dss_pe674.oe674 (.const:ti_sysbios_timers_rti_Timer_Module__diagsEnabled__C)
                  0081e9d4    00000004     dss_pe674.oe674 (.const:ti_sysbios_timers_rti_Timer_Module__diagsIncluded__C)
                  0081e9d8    00000004     dss_pe674.oe674 (.const:ti_sysbios_timers_rti_Timer_Module__diagsMask__C)
                  0081e9dc    00000004     dss_pe674.oe674 (.const:ti_sysbios_timers_rti_Timer_numTimerDevices__C)
                  0081e9e0    00000004     dss_pe674.oe674 (.const:ti_sysbios_timers_rti_Timer_startupNeeded__C)
                  0081e9e4    00000004     dss_pe674.oe674 (.const:ti_sysbios_utils_Load_Module_State_taskList__O)
                  0081e9e8    00000004     dss_pe674.oe674 (.const:ti_sysbios_utils_Load_Module__diagsEnabled__C)
                  0081e9ec    00000004     dss_pe674.oe674 (.const:ti_sysbios_utils_Load_Module__diagsIncluded__C)
                  0081e9f0    00000004     dss_pe674.oe674 (.const:ti_sysbios_utils_Load_Module__diagsMask__C)
                  0081e9f4    00000004     dss_pe674.oe674 (.const:ti_sysbios_utils_Load_postUpdate__C)
                  0081e9f8    00000004     dss_pe674.oe674 (.const:ti_sysbios_utils_Load_windowInMs__C)
                  0081e9fc    00000004     dss_pe674.oe674 (.const:xdc_runtime_Assert_E_assertFailed__C)
                  0081ea00    00000004     dss_pe674.oe674 (.const:xdc_runtime_Core_A_initializedParams__C)
                  0081ea04    00000004     dss_pe674.oe674 (.const:xdc_runtime_Core_Module__diagsEnabled__C)
                  0081ea08    00000004     dss_pe674.oe674 (.const:xdc_runtime_Core_Module__diagsIncluded__C)
                  0081ea0c    00000004     dss_pe674.oe674 (.const:xdc_runtime_Core_Module__diagsMask__C)
                  0081ea10    00000004     dss_pe674.oe674 (.const:xdc_runtime_Error_E_memory__C)
                  0081ea14    00000004     dss_pe674.oe674 (.const:xdc_runtime_Error_policyFxn__C)
                  0081ea18    00000004     dss_pe674.oe674 (.const:xdc_runtime_Error_policy__C)
                  0081ea1c    00000004     dss_pe674.oe674 (.const:xdc_runtime_Error_raiseHook__C)
                  0081ea20    00000004     dss_pe674.oe674 (.const:xdc_runtime_IGateProvider_Interface__BASE__C)
                  0081ea24    00000004     dss_pe674.oe674 (.const:xdc_runtime_IHeap_Interface__BASE__C)
                  0081ea28    00000004     dss_pe674.oe674 (.const:xdc_runtime_IModule_Interface__BASE__C)
                  0081ea2c    00000004     dss_pe674.oe674 (.const:xdc_runtime_Memory_defaultHeapInstance__C)
                  0081ea30    00000004     dss_pe674.oe674 (.const:xdc_runtime_Startup_execImpl__C)
                  0081ea34    00000004     dss_pe674.oe674 (.const:xdc_runtime_Startup_maxPasses__C)
                  0081ea38    00000004     dss_pe674.oe674 (.const:xdc_runtime_Startup_sfxnRts__C)
                  0081ea3c    00000004     dss_pe674.oe674 (.const:xdc_runtime_Startup_sfxnTab__C)
                  0081ea40    00000004     dss_pe674.oe674 (.const:xdc_runtime_System_Module__gateObj__C)
                  0081ea44    00000004     dss_pe674.oe674 (.const:xdc_runtime_System_abortFxn__C)
                  0081ea48    00000004     dss_pe674.oe674 (.const:xdc_runtime_System_exitFxn__C)
                  0081ea4c    00000004     dss_pe674.oe674 (.const:xdc_runtime_System_extendFxn__C)
                  0081ea50    00000004     dss_pe674.oe674 (.const:xdc_runtime_System_maxAtexitHandlers__C)
                  0081ea54    00000004     dss_pe674.oe674 (.const:xdc_runtime_Text_charTab__C)
                  0081ea58    00000004     dss_pe674.oe674 (.const:xdc_runtime_Text_nameEmpty__C)
                  0081ea5c    00000004     dss_pe674.oe674 (.const:xdc_runtime_Text_nameStatic__C)
                  0081ea60    00000004     dss_pe674.oe674 (.const:xdc_runtime_Text_nameUnknown__C)
                  0081ea64    00000004     dss_pe674.oe674 (.const:xdc_runtime_Text_nodeTab__C)
                  0081ea68    00000004     dss_pe674.oe674 (.const:xdc_runtime_Text_visitRopeFxn__C)
                  0081ea6c    00000002     dss_pe674.oe674 (.const:ti_sysbios_family_c64p_Exception_Module__id__C)
                  0081ea6e    00000002     dss_pe674.oe674 (.const:ti_sysbios_family_c64p_Exception_useInternalBuffer__C)
                  0081ea70    00000002     dss_pe674.oe674 (.const:ti_sysbios_gates_GateMutex_Module__id__C)
                  0081ea72    00000002     dss_pe674.oe674 (.const:ti_sysbios_hal_Hwi_Module__id__C)
                  0081ea74    00000002     dss_pe674.oe674 (.const:ti_sysbios_heaps_HeapMem_Module__id__C)
                  0081ea76    00000002     dss_pe674.oe674 (.const:ti_sysbios_knl_Semaphore_Module__id__C)
                  0081ea78    00000002     dss_pe674.oe674 (.const:ti_sysbios_knl_Task_Module__id__C)
                  0081ea7a    00000002     dss_pe674.oe674 (.const:ti_sysbios_timers_rti_Timer_Module__id__C)
                  0081ea7c    00000002     dss_pe674.oe674 (.const:ti_sysbios_timers_rti_Timer_continueOnSuspend__C)
                  0081ea7e    00000002     dss_pe674.oe674 (.const:ti_sysbios_utils_Load_Module__id__C)
                  0081ea80    00000002     dss_pe674.oe674 (.const:ti_sysbios_utils_Load_autoAddTasks__C)
                  0081ea82    00000002     dss_pe674.oe674 (.const:ti_sysbios_utils_Load_updateInIdle__C)
                  0081ea84    00000002     dss_pe674.oe674 (.const:xdc_runtime_Core_Module__id__C)
                  0081ea86    00000002     dss_pe674.oe674 (.const:xdc_runtime_Error_maxDepth__C)
                  0081ea88    00000002     dss_pe674.oe674 (.const:xdc_runtime_Main_Module__id__C)
                  0081ea8a    00000002     dss_pe674.oe674 (.const:xdc_runtime_Memory_Module__id__C)
                  0081ea8c    00000002     dss_pe674.oe674 (.const:xdc_runtime_Text_charCnt__C)
                  0081ea8e    00000002     dss_pe674.oe674 (.const:xdc_runtime_Text_isLoaded__C)
                  0081ea90    00000002     dss_pe674.oe674 (.const:xdc_runtime_Text_registryModsLastId__C)
                  0081ea92    00000002     dss_pe674.oe674 (.const:xdc_runtime_Text_unnamedModsLastId__C)

.MCPILogBuffer 
*          0    00f00000    00002400     UNINITIALIZED
                  00f00000    00002400     main.oe674 (.MCPILogBuffer)

.l3ram     0    20000000    000fef20     
                  20000000    00006de0     main.oe674 (.fardata:gFrameConfig)
                  20006de0    00000260     libtestlogger_xwr18xx.ae674 : logger.oe674 (.text:MCPI_setFeatureTestResult)
                  20007040    00000040                                 : logger.oe674 (.text:MCPI_Initialize)
                  20007080    00000020                                 : logger.oe674 (.text:MCPI_setTestResult)
                  200070a0    00000020     rts6740_elf.lib : snprintf.c.obj ($Tramp$S$$snprintf)
                  200070c0    00000020                     : printf.c.obj ($Tramp$S$$printf)
                  200070e0    00000360     libdpm_xwr18xx.ae674 : dpm_core.oe674 (.text:DPM_init)
                  20007440    00000360                          : dpm_msg.oe674 (.text:DPM_msgRecv)
                  200077a0    00000200                          : dpm_msg.oe674 (.text:DPM_msgResultHandler)
                  200079a0    00000180                          : dpm_core.oe674 (.text:DPM_deinit)
                  20007b20    00000180                          : dpm_core.oe674 (.text:DPM_ioctl)
                  20007ca0    00000160                          : dpm_msg.oe674 (.text:DPM_msgResponseHandler)
                  20007e00    00000120                          : dpm_msg.oe674 (.text:DPM_msgDPCCfgHandler)
                  20007f20    000000e0                          : dpm_core.oe674 (.text:DPM_execute)
                  20008000    000000e0                          : dpm_pipe.oe674 (.text:DPM_pipeSend)
                  200080e0    000000c0                          : dpm_mailbox.oe674 (.text:DPM_mboxRemoteMailboxCallbackFxn)
                  200081a0    000000a0                          : dpm_mailbox.oe674 (.text:DPM_mboxInit)
                  20008240    000000a0                          : dpm_msg.oe674 (.text:DPM_msgStartHandler)
                  200082e0    000000a0                          : dpm_msg.oe674 (.text:DPM_msgStopHandler)
                  20008380    000000a0                          : dpm_core.oe674 (.text:DPM_notifyExecute)
                  20008420    000000a0                          : dpm_pipe.oe674 (.text:DPM_pipeRecv)
                  200084c0    000000a0                          : dpm_core.oe674 (.text:DPM_start)
                  20008560    000000a0                          : dpm_core.oe674 (.text:DPM_stop)
                  20008600    00000080                          : dpm_mailbox.oe674 (.text:DPM_mboxSendResult)
                  20008680    00000080                          : dpm_pipe.oe674 (.text:DPM_pipeDeinit)
                  20008700    00000080                          : dpm_pipe.oe674 (.text:DPM_pipeInit)
                  20008780    00000060                          : dpm_listlib.oe674 (.text:DPM_listCat)
                  200087e0    00000060                          : dpm_mailbox.oe674 (.text:DPM_mboxDeinit)
                  20008840    00000060                          : dpm_msg.oe674 (.text:DPM_msgInitHeader)
                  200088a0    00000040                          : dpm_listlib.oe674 (.text:DPM_listAdd)
                  200088e0    00000040                          : dpm_listlib.oe674 (.text:DPM_listRemove)
                  20008920    00000040                          : dpm_mailbox.oe674 (.text:DPM_mboxMsgSend)
                  20008960    00000040                          : dpm_msg.oe674 (.text:DPM_msgAssertHandler)
                  200089a0    00000040                          : dpm_msg.oe674 (.text:DPM_msgBSSFaultHandler)
                  200089e0    00000040                          : dpm_msg.oe674 (.text:DPM_msgDPCInfoHandler)
                  20008a20    00000040                          : dpm_pipe.oe674 (.text:DPM_pipeDequeue)
                  20008a60    00000020                          : dpm_core.oe674 (.text:DPM_chirpISR)
                  20008a80    00000020                          : dpm_core.oe674 (.text:DPM_frameStartISR)
                  20008aa0    00000020                          : dpm_mailbox.oe674 (.text:DPM_mboxSynch)
                  20008ac0    00000020     libsoc_xwr18xx.ae674 : soc_xwr18xx.oe674 ($Tramp$S$$SOC_isMSSOperational)
                  20008ae0    00000020     libmailbox_xwr18xx.ae674 : mailbox.oe674 ($Tramp$S$$Mailbox_write)
                  20008b00    00000020                              : mailbox.oe674 ($Tramp$S$$Mailbox_close)
                  20008b20    00000020     libsoc_xwr18xx.ae674 : soc_xwr18xx.oe674 ($Tramp$S$$SOC_setDSSLinkState)
                  20008b40    00000020     libmailbox_xwr18xx.ae674 : mailbox.oe674 ($Tramp$S$$Mailbox_open)
                  20008b60    00000020                              : mailbox.oe674 ($Tramp$S$$Mailbox_Config_init)
                  20008b80    00000020                              : mailbox.oe674 ($Tramp$S$$Mailbox_readFlush)
                  20008ba0    00000020                              : mailbox.oe674 ($Tramp$S$$Mailbox_read)
                  20008bc0    00000020     libosal_xwr18xx.ae674 : SemaphoreP_tirtos.oe674 ($Tramp$S$$SemaphoreP_post)
                  20008be0    00000020                           : HwiP_tirtos.oe674 ($Tramp$S$$HwiP_restore)
                  20008c00    00000020                           : HwiP_tirtos.oe674 ($Tramp$S$$HwiP_disable)
                  20008c20    00000020                           : SemaphoreP_tirtos.oe674 ($Tramp$S$$SemaphoreP_pend)
                  20008c40    00000020     rts6740_elf.lib : memcpy64.asm.obj ($Tramp$S$$memcpy)
                  20008c60    00000020     libosal_xwr18xx.ae674 : MemoryP_tirtos.oe674 ($Tramp$S$$MemoryP_ctrlFree)
                  20008c80    00000020                           : SemaphoreP_tirtos.oe674 ($Tramp$S$$SemaphoreP_delete)
                  20008ca0    00000020     libsoc_xwr18xx.ae674 : soc.oe674 ($Tramp$S$$SOC_deregisterSysIntListener)
                  20008cc0    00000020     libosal_xwr18xx.ae674 : DebugP_tirtos.oe674 ($Tramp$S$$_DebugP_assert)
                  20008ce0    00000020     rts6740_elf.lib : push.asm.obj ($Tramp$S$$__c6xabi_pop_rts)
                  20008d00    00000020     libsoc_xwr18xx.ae674 : soc.oe674 ($Tramp$S$$SOC_registerSysIntListener)
                  20008d20    00000020     libosal_xwr18xx.ae674 : SemaphoreP_tirtos.oe674 ($Tramp$S$$SemaphoreP_create)
                  20008d40    00000020                           : SemaphoreP_tirtos.oe674 ($Tramp$S$$SemaphoreP_Params_init)
                  20008d60    00000020     rts6740_elf.lib : memset.c.obj ($Tramp$S$$memset)
                  20008d80    00000020     libosal_xwr18xx.ae674 : MemoryP_tirtos.oe674 ($Tramp$S$$MemoryP_ctrlAlloc)
                  20008da0    00000020     rts6740_elf.lib : push.asm.obj ($Tramp$S$$__c6xabi_push_rts)
                  20008dc0    00000860     gen_frame_data.oe674 (.text:genChirpData)
                  20009620    000002e0     gen_frame_data.oe674 (.text:initFrameData)
                  20009900    00000180     gen_frame_data.oe674 (.text:GaussianNoise)
                  20009a80    00000060     gen_frame_data.oe674 (.text:RandSimple)
                  20009ae0    00000020     rts6740_elf.lib : log.c.obj ($Tramp$S$$log)
                  20009b00    00000020                     : divf.c.obj ($Tramp$S$$__c6xabi_divf)
                  20009b20    00000020                     : sqrt.c.obj ($Tramp$S$$sqrt)
                  20009b40    00000020                     : sin.c.obj ($Tramp$S$$sin)
                  20009b60    00000020                     : cos.c.obj ($Tramp$S$$cos)
                  20009b80    00001fe0                     : _printfi.c.obj (.text:__TI_printfi)
                  2000bb60    00000660                     : _printfi.c.obj (.text:_pconv_a)
                  2000c1c0    00000400                     : _printfi.c.obj (.text:_pconv_g)
                  2000c5c0    000002a0                     : _printfi.c.obj (.text:_pconv_e)
                  2000c860    000002a0                     : _printfi.c.obj (.text:fcvt)
                  2000cb00    00000200                     : _printfi.c.obj (.text:_ltostr)
                  2000cd00    00000120                     : _printfi.c.obj (.text:_pconv_f)
                  2000ce20    00000100                     : _printfi.c.obj (.text:_mcpy)
                  2000cf20    000000a0                     : _printfi.c.obj (.text:_ecpy)
                  2000cfc0    00000040                     : _printfi.c.obj (.text:__c6xabi_isnan)
                  2000d000    00000020                     : divu.asm.obj ($Tramp$S$$__c6xabi_divu)
                  2000d020    00000020                     : imath40.c.obj ($Tramp$S$$__c6xabi_divul)
                  2000d040    00000020                     : _ltoa.c.obj ($Tramp$S$$__TI_ltoa)
                  2000d060    00000020                     : ldexp.c.obj ($Tramp$S$$ldexpl)
                  2000d080    00000020                     : frexp.c.obj ($Tramp$S$$frexpl)
                  2000d0a0    00000020                     : errno.c.obj ($Tramp$S$$__c6xabi_errno_addr)
                  2000d0c0    00000020                     : wcslen.c.obj ($Tramp$S$$wcslen)
                  2000d0e0    00000020                     : memccpy.c.obj ($Tramp$S$$memccpy)
                  2000d100    00000020                     : signbit.c.obj ($Tramp$S$$_signbit)
                  2000d120    00000020                     : isinf.c.obj ($Tramp$S$$__c6xabi_isinf)
                  2000d140    00000020                     : atoi.c.obj ($Tramp$S$$atoi)
                  2000d160    00000840                     : pow.c.obj (.text:pow)
                  2000d9a0    00000600                     : divd.c.obj (.text:__c6xabi_divd)
                  2000dfa0    00000260                     : imath64.c.obj (.text:__c6xabi_divull)
                  2000e200    00000140                     : imath64.c.obj (.text:__c6xabi_divlli)
                  2000e340    00000060                     : imath64.c.obj (.text:__c6xabi_remlli)
                  2000e3a0    00000060                     : imath64.c.obj (.text:_subcull)
                  2000e400    00000020                     : llabs.c.obj ($Tramp$S$$llabs)
                  2000e420    00000020                     : llshift.c.obj ($Tramp$S$$__c6xabi_llshl)
                  2000e440    000001c0                     : fopen.c.obj (.text:_openfile)
                  2000e600    00000120                     : fopen.c.obj (.text:fopen)
                  2000e720    000000a0                     : fopen.c.obj (.text:__TI_cleanup)
                  2000e7c0    00000020                     : open.c.obj ($Tramp$S$$open)
                  2000e7e0    00000100                     : fclose.c.obj (.text:__TI_closefile)
                  2000e8e0    00000080                     : fclose.c.obj (.text:fclose)
                  2000e960    00000020                     : unlink.c.obj ($Tramp$S$$unlink)
                  2000e980    00000020                     : close.c.obj ($Tramp$S$$close)
                  2000e9a0    00000020     dss_pe674.oe674 ($Tramp$S$$free)
                  2000e9c0    00000020     rts6740_elf.lib : fflush.c.obj ($Tramp$S$$__TI_doflush)
                  2000e9e0    00000240                     : fread.c.obj (.text:fread)
                  2000ec20    00000200                     : atan.c.obj (.text:atan)
                  2000ee20    000f0000     main.oe674 (.l3ram) [fill = 0]
                  200fee20    00000020     rts6740_elf.lib : read.c.obj ($Tramp$S$$read)
                  200fee40    00000020                     : _bufread.c.obj ($Tramp$S$$__TI_buff_read)
                  200fee60    00000020                     : _io_perm.c.obj ($Tramp$S$$__TI_rd_ok)
                  200fee80    00000020                     : frcmpyd_div.c.obj ($Tramp$S$$__TI_frcmpyd_div)
                  200feea0    00000020                     : llshift.c.obj ($Tramp$S$$__c6xabi_llshru)
                  200feec0    00000020                     : modf.c.obj ($Tramp$S$$modf)
                  200feee0    00000020                     : trunc.c.obj ($Tramp$S$$__c6xabi_trunc)
                  200fef00    00000020                     : round.c.obj ($Tramp$S$$__c6xabi_nround)

.fardata   0    0081ea98    0000109c     
                  0081ea98    00000400     dss_pe674.oe674 (.fardata:ti_sysbios_family_c64p_EventCombiner_Module__state__V)
                  0081ee98    000001e0     rts6740_elf.lib : defs.c.obj (.fardata:_ftable)
                  0081f078    000000a0                     : write.c.obj (.fardata:_stream)
                  0081f118    00000098     dss_pe674.oe674 (.fardata:ti_sysbios_utils_Load_Module__state__V)
                  0081f1b0    00000088     rts6740_elf.lib : pow.c.obj (.fardata:A1$1)
                  0081f238    00000080     dss_pe674.oe674 (.fardata:ti_sysbios_knl_Swi_Module_State_0_readyQ__A)
                  0081f2b8    00000080     dss_pe674.oe674 (.fardata:ti_sysbios_knl_Task_Module_State_0_readyQ__A)
                  0081f338    00000078     rts6740_elf.lib : write.c.obj (.fardata:_device)
                  0081f3b0    00000078     dss_pe674.oe674 (.fardata:ti_sysbios_family_c64p_Hwi_Object__table__V)
                  0081f428    0000006c     dss_pe674.oe674 (.fardata:ti_sysbios_family_c64p_Hwi_Module__state__V)
                  0081f494    00000004     rts6740_elf.lib : _lock.c.obj (.fardata:_lock)
                  0081f498    00000060                     : asin.c.obj (.fardata:asin_consts$1)
                  0081f4f8    0000005c     dss_pe674.oe674 (.fardata:ti_sysbios_knl_Task_Object__table__V)
                  0081f554    00000050     libmailbox_xwr18xx.ae674 : mailbox.oe674 (.fardata:gMailboxMCB)
                  0081f5a4    00000048     dss_pe674.oe674 (.fardata:ti_sysbios_knl_Task_Module__state__V)
                  0081f5ec    00000004     rts6740_elf.lib : _lock.c.obj (.fardata:_unlock)
                  0081f5f0    00000040                     : pow.c.obj (.fardata:A2$2)
                  0081f630    00000040                     : cos.c.obj (.fardata:R$1)
                  0081f670    00000040                     : sin.c.obj (.fardata:R$1)
                  0081f6b0    00000040     libsoc_xwr18xx.ae674 : soc_xwr18xx.oe674 (.fardata:SOC_TranslateAddr_LUT)
                  0081f6f0    00000040     rts6740_elf.lib : atan.c.obj (.fardata:arctan_consts$1)
                  0081f730    00000040     dss_pe674.oe674 (.fardata:ti_sysbios_gates_GateMutex_Object__table__V)
                  0081f770    0000003c     dss_pe674.oe674 (.fardata:ti_sysbios_timers_rti_Timer_Object__table__V)
                  0081f7ac    00000004     rts6740_elf.lib : defs.c.obj (.fardata)
                  0081f7b0    00000038                     : pow.c.obj (.fardata:Q$4)
                  0081f7e8    00000030     libhwa_xwr18xx.ae674 : hwa_xwr18xx.oe674 (.fardata:gHWAHwCfg)
                  0081f818    00000030     dss_pe674.oe674 (.fardata:ti_sysbios_family_c64p_Exception_Module__state__V)
                  0081f848    00000030     dss_pe674.oe674 (.fardata:ti_sysbios_knl_Swi_Object__table__V)
                  0081f878    0000002c     dss_pe674.oe674 (.fardata:ti_sysbios_knl_Clock_Module__state__V)
                  0081f8a4    00000024     objectdetection.oe674 (.fardata:gDPC_ObjectDetectionCfg)
                  0081f8c8    00000024     dss_pe674.oe674 (.fardata:ti_sysbios_BIOS_Module__state__V)
                  0081f8ec    00000004     rts6740_elf.lib : errno.c.obj (.fardata)
                  0081f8f0    00000020                     : atan.c.obj (.fardata:A$2)
                  0081f910    00000020                     : pow.c.obj (.fardata:P$3)
                  0081f930    00000020     dss_pe674.oe674 (.fardata:xdc_runtime_Error_IgnoreBlock)
                  0081f950    00000020     dss_pe674.oe674 (.fardata:xdc_runtime_System_Module_State_0_atexitHandlers__A)
                  0081f970    0000001c     dss_pe674.oe674 (.fardata:ti_sysbios_knl_Swi_Module__state__V)
                  0081f98c    00000004     rts6740_elf.lib : fopen.c.obj (.fardata)
                  0081f990    0000001c     dss_pe674.oe674 (.fardata:ti_sysbios_utils_Load_Module_State_0_taskEnv__A)
                  0081f9ac    00000004     rts6740_elf.lib : open.c.obj (.fardata)
                  0081f9b0    00000018                     : log.c.obj (.fardata:A$1)
                  0081f9c8    00000018                     : log.c.obj (.fardata:B$2)
                  0081f9e0    00000018     libmailbox_xwr18xx.ae674 : mailbox_xwr18xx.oe674 (.fardata:gMailboxDssBssHwCfg)
                  0081f9f8    00000018                              : mailbox_xwr18xx.oe674 (.fardata:gMailboxDssMssHwCfg)
                  0081fa10    00000018     libsoc_xwr18xx.ae674 : soc_xwr18xx_dss.oe674 (.fardata:gSOCHwAttrib)
                  0081fa28    00000018     dss_pe674.oe674 (.fardata:ti_sysbios_heaps_HeapMem_Object__table__V)
                  0081fa40    00000018     dss_pe674.oe674 (.fardata:ti_sysbios_timers_rti_Timer_Module_State_0_device__A)
                  0081fa58    00000014     libdpm_xwr18xx.ae674 : dpm_mailbox.oe674 (.fardata:gDPMRemoteTable)
                  0081fa6c    00000004     dss_pe674.oe674 (.fardata:ti_sysbios_family_c64p_Cache_Module__state__V)
                  0081fa70    00000010     libhwa_xwr18xx.ae674 : hwa.oe674 (.fardata:gHwaEDMAChanMapping)
                  0081fa80    00000010     dss_pe674.oe674 (.fardata:ti_sysbios_timers_rti_Timer_Module_State_0_intFreqs__A)
                  0081fa90    00000010     dss_pe674.oe674 (.fardata:ti_sysbios_timers_rti_Timer_Module__state__V)
                  0081faa0    0000000c     rts6740_elf.lib : exit.c.obj (.fardata)
                  0081faac    00000008     libdpm_xwr18xx.ae674 : dpm_xwr18xx.oe674 (.fardata:gDPMHwAttrib)
                  0081fab4    00000008     dss_pe674.oe674 (.fardata:ti_sysbios_gates_GateHwi_Module__root__V)
                  0081fabc    00000008     dss_pe674.oe674 (.fardata:ti_sysbios_gates_GateMutex_Module__root__V)
                  0081fac4    00000004     dss_pe674.oe674 (.fardata:ti_sysbios_heaps_HeapBuf_Module__state__V)
                  0081fac8    00000008     dss_pe674.oe674 (.fardata:ti_sysbios_hal_Hwi_Object__table__V)
                  0081fad0    00000008     dss_pe674.oe674 (.fardata:ti_sysbios_heaps_HeapMem_Module__root__V)
                  0081fad8    00000008     dss_pe674.oe674 (.fardata:ti_sysbios_knl_Queue_Module__root__V)
                  0081fae0    00000008     dss_pe674.oe674 (.fardata:ti_sysbios_knl_Semaphore_Module__root__V)
                  0081fae8    00000008     dss_pe674.oe674 (.fardata:ti_sysbios_knl_Task_Module__root__V)
                  0081faf0    00000008     dss_pe674.oe674 (.fardata:ti_sysbios_timers_rti_Timer_Module_State_0_handles__A)
                  0081faf8    00000008     dss_pe674.oe674 (.fardata:xdc_runtime_Registry_Module__state__V)
                  0081fb00    00000008     dss_pe674.oe674 (.fardata:xdc_runtime_Startup_Module__state__V)
                  0081fb08    00000008     dss_pe674.oe674 (.fardata:xdc_runtime_System_Module__state__V)
                  0081fb10    00000004     libhwa_xwr18xx.ae674 : hwa_xwr18xx.oe674 (.fardata:gHWADriverPtr)
                  0081fb14    00000004     dss_pe674.oe674 (.fardata:xdc_runtime_Memory_Module__state__V)
                  0081fb18    00000004     dss_pe674.oe674 (.fardata:ti_sysbios_gates_GateHwi_Object__table__V)
                  0081fb1c    00000002     dss_pe674.oe674 (.fardata:xdc_runtime_Error_Module__state__V)
                  0081fb1e    00000002     --HOLE-- [fill = 0]
                  0081fb20    00000004     dss_pe674.oe674 (.fardata:ti_sysbios_knl_Task_Module_State_0_idleTask__A)
                  0081fb24    00000004     --HOLE-- [fill = 0]
                  0081fb28    00000004     dss_pe674.oe674 (.fardata:ti_sysbios_utils_Load_Module_State_0_runningTask__A)
                  0081fb2c    00000004     --HOLE-- [fill = 0]
                  0081fb30    00000004     dss_pe674.oe674 (.fardata:ti_sysbios_utils_Load_Module_State_0_taskStartTime__A)

.switch    0    0081fb34    000000f4     
                  0081fb34    00000038     objectdetection.oe674 (.switch:DPC_ObjectDetection_ioctl)
                  0081fb6c    00000038     rts6740_elf.lib : _printfi.c.obj (.switch:__TI_printfi)
                  0081fba4    00000018     libdpm_xwr18xx.ae674 : dpm_msg.oe674 (.switch:DPM_msgResponseHandler)
                  0081fbbc    00000018     libhwa_xwr18xx.ae674 : hwa.oe674 (.switch:HWA_configParamSet)
                  0081fbd4    00000014     libaoaproc_hwa_xwr18xx.ae674 : aoaprochwa.oe674 (.switch:DPU_AoAProcHWA_control)
                  0081fbe8    00000010     libdpm_xwr18xx.ae674 : dpm_core.oe674 (.switch:DPM_ioctl)
                  0081fbf8    00000010     libcfarcaproc_hwa_xwr18xx.ae674 : cfarcaprochwa.oe674 (.switch:DPU_CFARCAProcHWA_control)
                  0081fc08    00000010     libsoc_xwr18xx.ae674 : soc_xwr18xx_dss.oe674 (.switch:SOC_getInAddr_LUTType)
                  0081fc18    00000010                          : soc_xwr18xx_dss.oe674 (.switch:SOC_getOutAddr_LUTType)

.hsram     0    21080000    00004000     UNINITIALIZED
                  21080000    00004000     main.oe674 (.hsram)

MODULE SUMMARY

       Module                     code     ro data   rw data
       ------                     ----     -------   -------
    /home/gtbldadm/nightlybuilds/mmwave_sdk/ti/datapath/dpc/objectdetection/objdethwa/test/dss_configPkg_xwr18xx/package/cfg/
       dss_pe674.oe674            4704     8226      36238  
    +--+--------------------------+--------+---------+---------+
       Total:                     4704     8226      36238  
                                                            
    obj_xwr18xx/
       main.oe674                 9152     2176      1099680
       objectdetection.oe674      11776    80        40     
       gen_frame_data.oe674       3392     44        8      
    +--+--------------------------+--------+---------+---------+
       Total:                     24320    2300      1099728
                                                            
    /home/gtbldadm/nightlybuilds/mmwave_sdk/scripts/jenkins/../../ti/alg/mmwavelib/lib/libmmwavealg_xwr18xx.ae674
       mmwavelib_vecsum.oe674     160      0         0      
       mmwavelib_vecsubc.oe674    96       0         0      
    +--+--------------------------+--------+---------+---------+
       Total:                     256      0         0      
                                                            
    /home/gtbldadm/nightlybuilds/mmwave_sdk/scripts/jenkins/../../ti/control/dpm/lib/libdpm_xwr18xx.ae674
       dpm_msg.oe674              2624     80        0      
       dpm_core.oe674             2512     32        0      
       dpm_pipe.oe674             704      16        0      
       dpm_mailbox.oe674          672      20        24     
       dpm_listlib.oe674          224      0         0      
       dpm_xwr18xx.oe674          0        0         8      
    +--+--------------------------+--------+---------+---------+
       Total:                     6736     148       32     
                                                            
    /home/gtbldadm/nightlybuilds/mmwave_sdk/scripts/jenkins/../../ti/datapath/dpc/dpu/aoaproc/lib/libaoaproc_hwa_xwr18xx.ae674
       aoaprochwa.oe674           12192    20        0      
    +--+--------------------------+--------+---------+---------+
       Total:                     12192    20        0      
                                                            
    /home/gtbldadm/nightlybuilds/mmwave_sdk/scripts/jenkins/../../ti/datapath/dpc/dpu/cfarcaproc/lib/libcfarcaproc_hwa_xwr18xx.ae674
       cfarcaprochwa.oe674        3712     16        0      
    +--+--------------------------+--------+---------+---------+
       Total:                     3712     16        0      
                                                            
    /home/gtbldadm/nightlybuilds/mmwave_sdk/scripts/jenkins/../../ti/datapath/dpc/dpu/dopplerproc/lib/libdopplerproc_hwa_xwr18xx.ae674
       dopplerprochwa.oe674       3872     0         0      
    +--+--------------------------+--------+---------+---------+
       Total:                     3872     0         0      
                                                            
    /home/gtbldadm/nightlybuilds/mmwave_sdk/scripts/jenkins/../../ti/datapath/dpc/dpu/staticclutterproc/lib/libstaticclutterproc_xwr18xx.ae674
       staticclutterproc.oe674    2016     0         0      
    +--+--------------------------+--------+---------+---------+
       Total:                     2016     0         0      
                                                            
    /home/gtbldadm/nightlybuilds/mmwave_sdk/scripts/jenkins/../../ti/datapath/dpedma/lib/libdpedma_hwa_xwr18xx.ae674
       dpedma.oe674               1056     0         0      
       dpedmahwa.oe674            608      0         0      
    +--+--------------------------+--------+---------+---------+
       Total:                     1664     0         0      
                                                            
    /home/gtbldadm/nightlybuilds/mmwave_sdk/scripts/jenkins/../../ti/datapath/dpu/rangeproc/lib/librangeproc_hwa_xwr18xx.ae674
       rangeprochwa.oe674         8864     0         0      
    +--+--------------------------+--------+---------+---------+
       Total:                     8864     0         0      
                                                            
    /home/gtbldadm/nightlybuilds/mmwave_sdk/scripts/jenkins/../../ti/drivers/edma/lib/libedma_xwr18xx.ae674
       edma.oe674                 6944     104       1256   
       edma_low_level.oe674       1920     0         4      
       edma_xwr1xxx.oe674         0        56        0      
    +--+--------------------------+--------+---------+---------+
       Total:                     8864     160       1260   
                                                            
    /home/gtbldadm/nightlybuilds/mmwave_sdk/scripts/jenkins/../../ti/drivers/hwa/lib/libhwa_xwr18xx.ae674
       hwa.oe674                  7520     152       16     
       hwa_xwr18xx.oe674          0        0         52     
    +--+--------------------------+--------+---------+---------+
       Total:                     7520     152       68     
                                                            
    /home/gtbldadm/nightlybuilds/mmwave_sdk/scripts/jenkins/../../ti/drivers/mailbox/lib/libmailbox_xwr18xx.ae674
       mailbox.oe674              3776     112       80     
       mailbox_xwr18xx.oe674      0        0         48     
    +--+--------------------------+--------+---------+---------+
       Total:                     3776     112       128    
                                                            
    /home/gtbldadm/nightlybuilds/mmwave_sdk/scripts/jenkins/../../ti/drivers/osal/lib/libosal_xwr18xx.ae674
       SemaphoreP_tirtos.oe674    416      32        0      
       HwiP_tirtos.oe674          352      28        0      
       MemoryP_tirtos.oe674       160      0         0      
       DebugP_tirtos.oe674        64       0         0      
    +--+--------------------------+--------+---------+---------+
       Total:                     992      60        0      
                                                            
    /home/gtbldadm/nightlybuilds/mmwave_sdk/scripts/jenkins/../../ti/drivers/soc/lib/libsoc_xwr18xx.ae674
       soc.oe674                  1536     0         0      
       soc_xwr18xx.oe674          704      0         64     
       soc_xwr18xx_dss.oe674      448      92        24     
    +--+--------------------------+--------+---------+---------+
       Total:                     2688     92        88     
                                                            
    /home/gtbldadm/nightlybuilds/mmwave_sdk/scripts/jenkins/../../ti/utils/mathutils/lib/libmathutils.ae674
       mathutils.oe674            640      0         0      
    +--+--------------------------+--------+---------+---------+
       Total:                     640      0         0      
                                                            
    /home/gtbldadm/nightlybuilds/mmwave_sdk/scripts/jenkins/../../ti/utils/testlogger/lib/libtestlogger_xwr18xx.ae674
       logger.oe674               752      148       9      
    +--+--------------------------+--------+---------+---------+
       Total:                     752      148       9      
                                                            
    /home/gtbldadm/nightlybuilds/mmwave_sdk/ti/datapath/dpc/objectdetection/objdethwa/test/dss_configPkg_xwr18xx/package/cfg/dss_pe674.src/sysbios/sysbios.ae674
       BIOS.obj                   42464    1584      0      
       c64p_Hwi_disp_always.obj   512      0         0      
       c64p_Exception_asm.obj     384      0         0      
       c62_TaskSupport_asm.obj    224      0         0      
       c64p_Hwi_asm_switch.obj    192      0         0      
    +--+--------------------------+--------+---------+---------+
       Total:                     43776    1584      0      
                                                            
    /opt/ti/bios_6_73_01_01/packages/ti/targets/rts6000/lib/boot.ae674
       autoinit.oe674             288      0         0      
       boot.oe674                 160      0         0      
    +--+--------------------------+--------+---------+---------+
       Total:                     448      0         0      
                                                            
    /opt/ti/mathlib_c674x_3_1_2_1/packages/ti/mathlib/lib/mathlib.ae674
       sqrtsp.oe674               160      0         0      
    +--+--------------------------+--------+---------+---------+
       Total:                     160      0         0      
                                                            
    /opt/ti/ti-cgt-c6000_8.3.3/lib/rts6740_elf.lib
       _printfi.c.obj             13456    92        0      
       pow.c.obj                  2112     0         288    
       divd.c.obj                 1552     0         0      
       imath64.c.obj              1136     0         0      
       fopen.c.obj                912      0         4      
       cos.c.obj                  832      0         64     
       sin.c.obj                  768      0         64     
       defs.c.obj                 0        0         804    
       fputs.c.obj                800      0         0      
       divf.c.obj                 704      0         0      
       atan.c.obj                 528      0         96     
       fread.c.obj                592      0         0      
       open.c.obj                 576      0         4      
       log.c.obj                  512      0         48     
       asin.c.obj                 416      0         96     
       trgmsg.c.obj               224      0         288    
       fputc.c.obj                480      0         0      
       frexp.c.obj                480      0         0      
       imath40.c.obj              480      0         0      
       ldexp.c.obj                480      0         0      
       atan2.c.obj                448      0         0      
       fflush.c.obj               448      0         0      
       getdevice.c.obj            448      0         0      
       setvbuf.c.obj              448      0         0      
       _io_perm.c.obj             416      0         0      
       hostrename.c.obj           416      0         0      
       fclose.c.obj               400      0         0      
       _bufread.c.obj             384      0         0      
       sqrt.c.obj                 384      0         0      
       write.c.obj                96       0         280    
       snprintf.c.obj             352      0         0      
       printf.c.obj               320      0         0      
       atoi.c.obj                 288      0         0      
       llshift.c.obj              288      0         0      
       exit.c.obj                 256      0         12     
       ctype.c.obj                0        257       0      
       _ltoa.c.obj                256      0         0      
       close.c.obj                256      0         0      
       fseek.c.obj                256      0         0      
       memset.c.obj               256      0         0      
       hostopen.c.obj             224      0         8      
       divi.asm.obj               224      0         0      
       divu.asm.obj               224      0         0      
       hostlseek.c.obj            224      0         0      
       hostwrite.c.obj            224      0         0      
       modf.c.obj                 224      0         0      
       hostread.c.obj             192      0         0      
       hostunlink.c.obj           192      0         0      
       memcpy64.asm.obj           192      0         0      
       round.c.obj                192      0         0      
       sprintf.c.obj              192      0         0      
       tls.c.obj                  192      0         0      
       fixfu.c.obj                160      0         0      
       hostclose.c.obj            160      0         0      
       remu.asm.obj               160      0         0      
       unlink.c.obj               160      0         0      
       fixdu.c.obj                128      0         0      
       memccpy.c.obj              128      0         0      
       push.asm.obj               128      0         0      
       read.c.obj                 128      0         0      
       _lock.c.obj                96       0         8      
       frcmpyd_div.c.obj          96       0         0      
       isinf.c.obj                96       0         0      
       lseek.c.obj                96       0         0      
       wcslen.c.obj               96       0         0      
       errno.c.obj                64       0         4      
       args_main.c.obj            64       0         0      
       llabs.c.obj                64       0         0      
       signbit.c.obj              64       0         0      
       strasg.asm.obj             64       0         0      
       trunc.c.obj                64       0         0      
    +--+--------------------------+--------+---------+---------+
       Total:                     37968    349       2068   
                                                            
       Stack:                     0        0         2048   
    +--+--------------------------+--------+---------+---------+
       Grand Total:               175920   13367     1141667


FAR CALL TRAMPOLINES

callee name               trampoline name
   callee addr  tramp addr   call addr  call info
--------------  -----------  ---------  ----------------
$.text:DPM_deinit:libdpm_xwr18xx.ae674<dpm_core.oe674>$0x0  $Tramp$S$$DPM_deinit
   200079a0     007fed00     007fec88   main.oe674 (.text:ObjectDetection_Test_DPCDeinit)
$.text:DPM_start:libdpm_xwr18xx.ae674<dpm_core.oe674>$0x0  $Tramp$S$$DPM_start
   200084c0     007fed10     007fee28   main.oe674 (.text:ObjectDetection_Test_startDPC)
$.text:DPM_stop:libdpm_xwr18xx.ae674<dpm_core.oe674>$0x0  $Tramp$S$$DPM_stop
   20008560     007feea0     007feec8   main.oe674 (.text:ObjectDetection_Test_stopDPC)
$.text:DPM_notifyExecute:libdpm_xwr18xx.ae674<dpm_core.oe674>$0x0  $Tramp$S$$DPM_notifyExecute
   20008380     007feeb0     007fbd74   objectdetection.oe674 (.text:DPC_ObjectDetection_frameStart)
$.text:__TI_printfi:rts6740_elf.lib<_printfi.c.obj>$0x0  $Tramp$S$$__TI_printfi
   20009b80     007fef40     007fba40   rts6740_elf.lib : printf.c.obj (.text:printf)
                             007ff328                   : snprintf.c.obj (.text:snprintf)
                             00800c30                   : sprintf.c.obj (.text:sprintf)
$.text:MCPI_Initialize:libtestlogger_xwr18xx.ae674<logger.oe674>$0x0  $Tramp$S$$MCPI_Initialize
   20007040     007fef50     007fb7ec   main.oe674 (.text:main)
$.text:DPM_execute:libdpm_xwr18xx.ae674<dpm_core.oe674>$0x0  $Tramp$S$$DPM_execute
   20007f20     007fff00     007fa4a8   main.oe674 (.text:ObjectDetection_Test_dpmTask)
$.text:__c6xabi_divull:rts6740_elf.lib<imath64.c.obj>$0x0  $Tramp$S$$__c6xabi_divull
   2000dfa0     007fff10     007f9ba4   sysbios.ae674 : BIOS.obj (.text:ti_sysbios_timers_rti_Timer_setPeriodMicroSecs__E)
$.text:DPM_init:libdpm_xwr18xx.ae674<dpm_core.oe674>$0x0  $Tramp$S$$DPM_init
   200070e0     007fff20     007f65ac   main.oe674 (.text:ObjectDetection_Test_DPCInit)
$.text:atan:rts6740_elf.lib<atan.c.obj>$0x0  $Tramp$S$$atan
   2000ec20     007fff30     007f3aac   rts6740_elf.lib : atan2.c.obj (.text:atan2)
$.text:__c6xabi_divd:rts6740_elf.lib<divd.c.obj>$0x0  $Tramp$S$$__c6xabi_divd
   2000d9a0     007fff40     007e4fcc   objectdetection.oe674 (.text:DPC_ObjDet_rangeBiasRxChPhaseMeasure)
                             007e54c4   objectdetection.oe674 (.text:DPC_ObjDet_rangeBiasRxChPhaseMeasure)
                             007eb780   main.oe674 (.text:ObjectDetection_Test_CompareToRef)
                             007ed548   libaoaproc_hwa_xwr18xx.ae674 : aoaprochwa.oe674 (.text:AoAProcHWA_XYZestimation)
                             007f0f08                                : aoaprochwa.oe674 (.text:aoaHwa_dopplerCompensation)
                             007f1ad8   libmathutils.ae674 : mathutils.oe674 (.text:mathUtils_genWindow)
                             007f2738   rts6740_elf.lib : log.c.obj (.text:log)
                             007f27b8                   : log.c.obj (.text:log)
                             007f3a74                   : atan2.c.obj (.text:atan2)
                             007f57c4   main.oe674 (.text:ObjectDetection_Test_printAndCheckResults)
                             007f7ba4   libaoaproc_hwa_xwr18xx.ae674 : aoaprochwa.oe674 (.text:AoAProcHWA_ConvertFov)
                             007f7bf8                                : aoaprochwa.oe674 (.text:AoAProcHWA_ConvertFov)
                             007f7c34                                : aoaprochwa.oe674 (.text:AoAProcHWA_ConvertFov)
                             007f7c78                                : aoaprochwa.oe674 (.text:AoAProcHWA_ConvertFov)
$.text:MCPI_setTestResult:libtestlogger_xwr18xx.ae674<logger.oe674>$0x0  $Tramp$S$$MCPI_setTestResult
   20007080     007fff50     007e0dd4   main.oe674 (.text:ObjectDetection_Test_task)
$.text:fclose:rts6740_elf.lib<fclose.c.obj>$0x0  $Tramp$S$$fclose
   2000e8e0     007fff60     007e0dd0   main.oe674 (.text:ObjectDetection_Test_task)
$.text:MCPI_setFeatureTestResult:libtestlogger_xwr18xx.ae674<logger.oe674>$0x0  $Tramp$S$$MCPI_setFeatureTestResult
   20006de0     007fff70     007e0c24   main.oe674 (.text:ObjectDetection_Test_task)
$.text:genChirpData:gen_frame_data.oe674$0x0  $Tramp$S$$genChirpData
   20008dc0     007fff80     007e0abc   main.oe674 (.text:ObjectDetection_Test_task)
$.text:initFrameData:gen_frame_data.oe674$0x0  $Tramp$S$$initFrameData
   20009620     007fff90     007e0a6c   main.oe674 (.text:ObjectDetection_Test_task)
$.text:DPM_ioctl:libdpm_xwr18xx.ae674<dpm_core.oe674>$0x0  $Tramp$S$$DPM_ioctl
   20007b20     007fffa0     007e0728   main.oe674 (.text:ObjectDetection_Test_task)
                             007e0c64   main.oe674 (.text:ObjectDetection_Test_task)
                             007f34f4   main.oe674 (.text:ObjectDetection_Test_configDPC)
                             007f3590   main.oe674 (.text:ObjectDetection_Test_configDPC)
                             007fc5b4   objectdetection.oe674 (.text:_DPC_Objdet_Assert)
$.text:fread:rts6740_elf.lib<fread.c.obj>$0x0  $Tramp$S$$fread
   2000e9e0     007fffb0     007e0284   main.oe674 (.text:ObjectDetection_Test_task)
                             007e03d0   main.oe674 (.text:ObjectDetection_Test_task)
                             007e03f0   main.oe674 (.text:ObjectDetection_Test_task)
                             007e0400   main.oe674 (.text:ObjectDetection_Test_task)
                             007e0420   main.oe674 (.text:ObjectDetection_Test_task)
                             007e0440   main.oe674 (.text:ObjectDetection_Test_task)
                             007e0454   main.oe674 (.text:ObjectDetection_Test_task)
                             007e0474   main.oe674 (.text:ObjectDetection_Test_task)
                             007e0488   main.oe674 (.text:ObjectDetection_Test_task)
                             007e04c0   main.oe674 (.text:ObjectDetection_Test_task)
                             007e04e0   main.oe674 (.text:ObjectDetection_Test_task)
                             007e0500   main.oe674 (.text:ObjectDetection_Test_task)
                             007e0520   main.oe674 (.text:ObjectDetection_Test_task)
                             007e0540   main.oe674 (.text:ObjectDetection_Test_task)
$.text:fopen:rts6740_elf.lib<fopen.c.obj>$0x0  $Tramp$S$$fopen
   2000e600     007fffc0     007e024c   main.oe674 (.text:ObjectDetection_Test_task)
$.text:snprintf:rts6740_elf.lib<snprintf.c.obj>$0x0  $Tramp$S$$snprintf
   007ff2e0     200070a0     20006f00   libtestlogger_xwr18xx.ae674 : logger.oe674 (.text:MCPI_setFeatureTestResult)
$.text:printf:rts6740_elf.lib<printf.c.obj>$0x0  $Tramp$S$$printf
   007fb9a0     200070c0     20006ee4   libtestlogger_xwr18xx.ae674 : logger.oe674 (.text:MCPI_setFeatureTestResult)
                             20007018                               : logger.oe674 (.text:MCPI_setFeatureTestResult)
                             20009604   gen_frame_data.oe674 (.text:genChirpData)
$.text:SOC_isMSSOperational:libsoc_xwr18xx.ae674<soc_xwr18xx.oe674>$0x0  $Tramp$S$$SOC_isMSSOperational
   00801860     20008ac0     20008aa8   libdpm_xwr18xx.ae674 : dpm_mailbox.oe674 (.text:DPM_mboxSynch)
$.text:Mailbox_write:libmailbox_xwr18xx.ae674<mailbox.oe674>$0x0  $Tramp$S$$Mailbox_write
   007f0c00     20008ae0     20008934   libdpm_xwr18xx.ae674 : dpm_mailbox.oe674 (.text:DPM_mboxMsgSend)
$.text:Mailbox_close:libmailbox_xwr18xx.ae674<mailbox.oe674>$0x0  $Tramp$S$$Mailbox_close
   007f6f20     20008b00     20008800   libdpm_xwr18xx.ae674 : dpm_mailbox.oe674 (.text:DPM_mboxDeinit)
$.text:SOC_setDSSLinkState:libsoc_xwr18xx.ae674<soc_xwr18xx.oe674>$0x0  $Tramp$S$$SOC_setDSSLinkState
   00800840     20008b20     20008208   libdpm_xwr18xx.ae674 : dpm_mailbox.oe674 (.text:DPM_mboxInit)
                             20008814                        : dpm_mailbox.oe674 (.text:DPM_mboxDeinit)
$.text:Mailbox_open:libmailbox_xwr18xx.ae674<mailbox.oe674>$0x0  $Tramp$S$$Mailbox_open
   007e9660     20008b40     200081d4   libdpm_xwr18xx.ae674 : dpm_mailbox.oe674 (.text:DPM_mboxInit)
$.text:Mailbox_Config_init:libmailbox_xwr18xx.ae674<mailbox.oe674>$0x0  $Tramp$S$$Mailbox_Config_init
   00800660     20008b60     200081b0   libdpm_xwr18xx.ae674 : dpm_mailbox.oe674 (.text:DPM_mboxInit)
$.text:Mailbox_readFlush:libmailbox_xwr18xx.ae674<mailbox.oe674>$0x0  $Tramp$S$$Mailbox_readFlush
   007fa380     20008b80     20008158   libdpm_xwr18xx.ae674 : dpm_mailbox.oe674 (.text:DPM_mboxRemoteMailboxCallbackFxn)
$.text:Mailbox_read:libmailbox_xwr18xx.ae674<mailbox.oe674>$0x0  $Tramp$S$$Mailbox_read
   007f32e0     20008ba0     200080f8   libdpm_xwr18xx.ae674 : dpm_mailbox.oe674 (.text:DPM_mboxRemoteMailboxCallbackFxn)
                             20008130                        : dpm_mailbox.oe674 (.text:DPM_mboxRemoteMailboxCallbackFxn)
$.text:SemaphoreP_post:libosal_xwr18xx.ae674<SemaphoreP_tirtos.oe674>$0x0  $Tramp$S$$SemaphoreP_post
   00802420     20008bc0     200080a8   libdpm_xwr18xx.ae674 : dpm_pipe.oe674 (.text:DPM_pipeSend)
                             200083d8                        : dpm_core.oe674 (.text:DPM_notifyExecute)
                             200083e8                        : dpm_core.oe674 (.text:DPM_notifyExecute)
$.text:HwiP_restore:libosal_xwr18xx.ae674<HwiP_tirtos.oe674>$0x0  $Tramp$S$$HwiP_restore
   00802340     20008be0     20007fa0   libdpm_xwr18xx.ae674 : dpm_core.oe674 (.text:DPM_execute)
                             2000802c                        : dpm_pipe.oe674 (.text:DPM_pipeSend)
                             200080a0                        : dpm_pipe.oe674 (.text:DPM_pipeSend)
                             200083c4                        : dpm_core.oe674 (.text:DPM_notifyExecute)
                             20008490                        : dpm_pipe.oe674 (.text:DPM_pipeRecv)
                             200086d4                        : dpm_pipe.oe674 (.text:DPM_pipeDeinit)
                             20008744                        : dpm_pipe.oe674 (.text:DPM_pipeInit)
                             20008a44                        : dpm_pipe.oe674 (.text:DPM_pipeDequeue)
$.text:HwiP_disable:libosal_xwr18xx.ae674<HwiP_tirtos.oe674>$0x0  $Tramp$S$$HwiP_disable
   008022e0     20008c00     20007f88   libdpm_xwr18xx.ae674 : dpm_core.oe674 (.text:DPM_execute)
                             20008008                        : dpm_pipe.oe674 (.text:DPM_pipeSend)
                             20008084                        : dpm_pipe.oe674 (.text:DPM_pipeSend)
                             200083b8                        : dpm_core.oe674 (.text:DPM_notifyExecute)
                             20008478                        : dpm_pipe.oe674 (.text:DPM_pipeRecv)
                             200086c0                        : dpm_pipe.oe674 (.text:DPM_pipeDeinit)
                             20008720                        : dpm_pipe.oe674 (.text:DPM_pipeInit)
                             20008a28                        : dpm_pipe.oe674 (.text:DPM_pipeDequeue)
$.text:SemaphoreP_pend:libosal_xwr18xx.ae674<SemaphoreP_tirtos.oe674>$0x0  $Tramp$S$$SemaphoreP_pend
   00802400     20008c20     20007f50   libdpm_xwr18xx.ae674 : dpm_core.oe674 (.text:DPM_execute)
$.text:memcpy:rts6740_elf.lib<memcpy64.asm.obj>$0x0  $Tramp$S$$memcpy
   007fdd40     20008c40     20007c14   libdpm_xwr18xx.ae674 : dpm_core.oe674 (.text:DPM_ioctl)
                             20007ef8                        : dpm_msg.oe674 (.text:DPM_msgDPCCfgHandler)
                             20008078                        : dpm_pipe.oe674 (.text:DPM_pipeSend)
                             20008474                        : dpm_pipe.oe674 (.text:DPM_pipeRecv)
                             2000eae4   rts6740_elf.lib : fread.c.obj (.text:fread)
$.text:MemoryP_ctrlFree:libosal_xwr18xx.ae674<MemoryP_tirtos.oe674>$0x0  $Tramp$S$$MemoryP_ctrlFree
   00802380     20008c60     20007ad8   libdpm_xwr18xx.ae674 : dpm_core.oe674 (.text:DPM_deinit)
$.text:SemaphoreP_delete:libosal_xwr18xx.ae674<SemaphoreP_tirtos.oe674>$0x0  $Tramp$S$$SemaphoreP_delete
   008023e0     20008c80     20007ad0   libdpm_xwr18xx.ae674 : dpm_core.oe674 (.text:DPM_deinit)
$.text:SOC_deregisterSysIntListener:libsoc_xwr18xx.ae674<soc.oe674>$0x0  $Tramp$S$$SOC_deregisterSysIntListener
   007f3660     20008ca0     200079e8   libdpm_xwr18xx.ae674 : dpm_core.oe674 (.text:DPM_deinit)
                             20007a20                        : dpm_core.oe674 (.text:DPM_deinit)
$.text:_DebugP_assert:libosal_xwr18xx.ae674<DebugP_tirtos.oe674>$0x0  $Tramp$S$$_DebugP_assert
   00802440     20008cc0     200074c8   libdpm_xwr18xx.ae674 : dpm_msg.oe674 (.text:DPM_msgRecv)
                             200074d8                        : dpm_msg.oe674 (.text:DPM_msgRecv)
                             2000750c                        : dpm_msg.oe674 (.text:DPM_msgRecv)
                             20007754                        : dpm_msg.oe674 (.text:DPM_msgRecv)
                             200077cc                        : dpm_msg.oe674 (.text:DPM_msgResultHandler)
                             20007884                        : dpm_msg.oe674 (.text:DPM_msgResultHandler)
                             20007a58                        : dpm_core.oe674 (.text:DPM_deinit)
                             20007ce4                        : dpm_msg.oe674 (.text:DPM_msgResponseHandler)
                             20008048                        : dpm_pipe.oe674 (.text:DPM_pipeSend)
                             20008114                        : dpm_mailbox.oe674 (.text:DPM_mboxRemoteMailboxCallbackFxn)
                             20008144                        : dpm_mailbox.oe674 (.text:DPM_mboxRemoteMailboxCallbackFxn)
$.text:__pop_rts:rts6740_elf.lib<push.asm.obj>$0x0  $Tramp$S$$__c6xabi_pop_rts
   008024a0     20008ce0     20007430   libdpm_xwr18xx.ae674 : dpm_core.oe674 (.text:DPM_init)
                             20007784                        : dpm_msg.oe674 (.text:DPM_msgRecv)
                             20007980                        : dpm_msg.oe674 (.text:DPM_msgResultHandler)
                             20007c80                        : dpm_core.oe674 (.text:DPM_ioctl)
                             20007f00                        : dpm_msg.oe674 (.text:DPM_msgDPCCfgHandler)
                             200082c0                        : dpm_msg.oe674 (.text:DPM_msgStartHandler)
                             20008360                        : dpm_msg.oe674 (.text:DPM_msgStopHandler)
                             20009608   gen_frame_data.oe674 (.text:genChirpData)
                             200098f4   gen_frame_data.oe674 (.text:initFrameData)
                             20009a74   gen_frame_data.oe674 (.text:GaussianNoise)
                             2000bb4c   rts6740_elf.lib : _printfi.c.obj (.text:__TI_printfi)
                             2000c1a0                   : _printfi.c.obj (.text:_pconv_a)
                             2000c5b0                   : _printfi.c.obj (.text:_pconv_g)
                             2000c840                   : _printfi.c.obj (.text:_pconv_e)
                             2000cae0                   : _printfi.c.obj (.text:fcvt)
                             2000ccec                   : _printfi.c.obj (.text:_ltostr)
                             2000e8c0                   : fclose.c.obj (.text:__TI_closefile)
                             2000ec00                   : fread.c.obj (.text:fread)
$.text:SOC_registerSysIntListener:libsoc_xwr18xx.ae674<soc.oe674>$0x0  $Tramp$S$$SOC_registerSysIntListener
   007f71e0     20008d00     2000732c   libdpm_xwr18xx.ae674 : dpm_core.oe674 (.text:DPM_init)
                             20007388                        : dpm_core.oe674 (.text:DPM_init)
$.text:SemaphoreP_create:libosal_xwr18xx.ae674<SemaphoreP_tirtos.oe674>$0x0  $Tramp$S$$SemaphoreP_create
   007fef60     20008d20     200071a0   libdpm_xwr18xx.ae674 : dpm_core.oe674 (.text:DPM_init)
$.text:SemaphoreP_Params_init:libosal_xwr18xx.ae674<SemaphoreP_tirtos.oe674>$0x0  $Tramp$S$$SemaphoreP_Params_init
   008023c0     20008d40     2000718c   libdpm_xwr18xx.ae674 : dpm_core.oe674 (.text:DPM_init)
$.text:memset:rts6740_elf.lib<memset.c.obj>$0x0  $Tramp$S$$memset
   007fb8c0     20008d60     20007168   libdpm_xwr18xx.ae674 : dpm_core.oe674 (.text:DPM_init)
                             20007314                        : dpm_core.oe674 (.text:DPM_init)
                             2000736c                        : dpm_core.oe674 (.text:DPM_init)
                             2000746c                        : dpm_msg.oe674 (.text:DPM_msgRecv)
                             2000784c                        : dpm_msg.oe674 (.text:DPM_msgResultHandler)
                             20007924                        : dpm_msg.oe674 (.text:DPM_msgResultHandler)
                             20007e98                        : dpm_msg.oe674 (.text:DPM_msgDPCCfgHandler)
                             20007f60                        : dpm_core.oe674 (.text:DPM_execute)
                             20008280                        : dpm_msg.oe674 (.text:DPM_msgStartHandler)
                             20008320                        : dpm_msg.oe674 (.text:DPM_msgStopHandler)
                             20008858                        : dpm_msg.oe674 (.text:DPM_msgInitHeader)
                             20008e0c   gen_frame_data.oe674 (.text:genChirpData)
                             2000a1f0   rts6740_elf.lib : _printfi.c.obj (.text:__TI_printfi)
                             2000b3f0                   : _printfi.c.obj (.text:__TI_printfi)
                             2000b434                   : _printfi.c.obj (.text:__TI_printfi)
                             2000b4d0                   : _printfi.c.obj (.text:__TI_printfi)
                             2000e6e0                   : fopen.c.obj (.text:fopen)
$.text:MemoryP_ctrlAlloc:libosal_xwr18xx.ae674<MemoryP_tirtos.oe674>$0x0  $Tramp$S$$MemoryP_ctrlAlloc
   00802360     20008d80     20007134   libdpm_xwr18xx.ae674 : dpm_core.oe674 (.text:DPM_init)
$.text:__push_rts:rts6740_elf.lib<push.asm.obj>$0x0  $Tramp$S$$__c6xabi_push_rts
   008024c0     20008da0     200070e0   libdpm_xwr18xx.ae674 : dpm_core.oe674 (.text:DPM_init)
                             20007440                        : dpm_msg.oe674 (.text:DPM_msgRecv)
                             200077a0                        : dpm_msg.oe674 (.text:DPM_msgResultHandler)
                             20007b20                        : dpm_core.oe674 (.text:DPM_ioctl)
                             20007e00                        : dpm_msg.oe674 (.text:DPM_msgDPCCfgHandler)
                             20008240                        : dpm_msg.oe674 (.text:DPM_msgStartHandler)
                             200082e0                        : dpm_msg.oe674 (.text:DPM_msgStopHandler)
                             20008dc0   gen_frame_data.oe674 (.text:genChirpData)
                             20009620   gen_frame_data.oe674 (.text:initFrameData)
                             20009900   gen_frame_data.oe674 (.text:GaussianNoise)
                             20009b80   rts6740_elf.lib : _printfi.c.obj (.text:__TI_printfi)
                             2000bb60                   : _printfi.c.obj (.text:_pconv_a)
                             2000c1c0                   : _printfi.c.obj (.text:_pconv_g)
                             2000c5c0                   : _printfi.c.obj (.text:_pconv_e)
                             2000c860                   : _printfi.c.obj (.text:fcvt)
                             2000cb00                   : _printfi.c.obj (.text:_ltostr)
                             2000e7e0                   : fclose.c.obj (.text:__TI_closefile)
                             2000e9e0                   : fread.c.obj (.text:fread)
$.text:log:rts6740_elf.lib<log.c.obj>$0x0  $Tramp$S$$log
   007f2660     20009ae0     200099d8   gen_frame_data.oe674 (.text:GaussianNoise)
$.text:__c6xabi_divf:rts6740_elf.lib<divf.c.obj>$0x0  $Tramp$S$$__c6xabi_divf
   007eef00     20009b00     200099b8   gen_frame_data.oe674 (.text:GaussianNoise)
                             20009a10   gen_frame_data.oe674 (.text:GaussianNoise)
$.text:sqrt:rts6740_elf.lib<sqrt.c.obj>$0x0  $Tramp$S$$sqrt
   007f74a0     20009b20     20009750   gen_frame_data.oe674 (.text:initFrameData)
                             200099f8   gen_frame_data.oe674 (.text:GaussianNoise)
$.text:sin:rts6740_elf.lib<sin.c.obj>$0x0  $Tramp$S$$sin
   007ecb60     20009b40     20009054   gen_frame_data.oe674 (.text:genChirpData)
                             20009170   gen_frame_data.oe674 (.text:genChirpData)
                             20009234   gen_frame_data.oe674 (.text:genChirpData)
                             200096b8   gen_frame_data.oe674 (.text:initFrameData)
                             20009a54   gen_frame_data.oe674 (.text:GaussianNoise)
$.text:cos:rts6740_elf.lib<cos.c.obj>$0x0  $Tramp$S$$cos
   007ec220     20009b60     20009044   gen_frame_data.oe674 (.text:genChirpData)
                             20009160   gen_frame_data.oe674 (.text:genChirpData)
                             20009220   gen_frame_data.oe674 (.text:genChirpData)
                             20009a30   gen_frame_data.oe674 (.text:GaussianNoise)
$.text:__divu:rts6740_elf.lib<divu.asm.obj>$0x0  $Tramp$S$$__c6xabi_divu
   007fc5e0     2000d000     2000cc0c   rts6740_elf.lib : _printfi.c.obj (.text:_ltostr)
                             2000ebf4                   : fread.c.obj (.text:fread)
$.text:__c6xabi_divul:rts6740_elf.lib<imath40.c.obj>$0x0  $Tramp$S$$__c6xabi_divul
   007f3820     2000d020     2000cbf4   rts6740_elf.lib : _printfi.c.obj (.text:_ltostr)
$.text:__TI_ltoa:rts6740_elf.lib<_ltoa.c.obj>$0x0  $Tramp$S$$__TI_ltoa
   007fb380     2000d040     2000bc64   rts6740_elf.lib : _printfi.c.obj (.text:_pconv_a)
                             2000c344                   : _printfi.c.obj (.text:_pconv_g)
                             2000c9c4                   : _printfi.c.obj (.text:fcvt)
$.text:ldexp:rts6740_elf.lib<ldexp.c.obj>$0x0  $Tramp$S$$ldexpl
   007f3f20     2000d060     2000bc4c   rts6740_elf.lib : _printfi.c.obj (.text:_pconv_a)
                             2000d2e4                   : pow.c.obj (.text:pow)
                             2000d4b8                   : pow.c.obj (.text:pow)
                             2000d56c                   : pow.c.obj (.text:pow)
                             2000d78c                   : pow.c.obj (.text:pow)
$.text:frexp:rts6740_elf.lib<frexp.c.obj>$0x0  $Tramp$S$$frexpl
   007f3d60     2000d080     2000bbc8   rts6740_elf.lib : _printfi.c.obj (.text:_pconv_a)
                             2000bc3c                   : _printfi.c.obj (.text:_pconv_a)
                             2000d280                   : pow.c.obj (.text:pow)
$.text:__c6xabi_errno_addr:rts6740_elf.lib<errno.c.obj>$0x0  $Tramp$S$$__c6xabi_errno_addr
   00802460     2000d0a0     2000b8ec   rts6740_elf.lib : _printfi.c.obj (.text:__TI_printfi)
                             2000d254                   : pow.c.obj (.text:pow)
                             2000d624                   : pow.c.obj (.text:pow)
                             2000d7e0                   : pow.c.obj (.text:pow)
                             2000d8a0                   : pow.c.obj (.text:pow)
$.text:wcslen:rts6740_elf.lib<wcslen.c.obj>$0x0  $Tramp$S$$wcslen
   00801f60     2000d0c0     2000b7c0   rts6740_elf.lib : _printfi.c.obj (.text:__TI_printfi)
                             2000b7e0                   : _printfi.c.obj (.text:__TI_printfi)
$.text:memccpy:rts6740_elf.lib<memccpy.c.obj>$0x0  $Tramp$S$$memccpy
   00800ae0     2000d0e0     2000b3a0   rts6740_elf.lib : _printfi.c.obj (.text:__TI_printfi)
$.text:_signbit:rts6740_elf.lib<signbit.c.obj>$0x0  $Tramp$S$$_signbit
   008025a0     2000d100     2000af40   rts6740_elf.lib : _printfi.c.obj (.text:__TI_printfi)
$.text:__c6xabi_isinf:rts6740_elf.lib<isinf.c.obj>$0x0  $Tramp$S$$__c6xabi_isinf
   008018e0     2000d120     2000af00   rts6740_elf.lib : _printfi.c.obj (.text:__TI_printfi)
$.text:atoi:rts6740_elf.lib<atoi.c.obj>$0x0  $Tramp$S$$atoi
   007fa780     2000d140     20009e34   rts6740_elf.lib : _printfi.c.obj (.text:__TI_printfi)
                             20009f68                   : _printfi.c.obj (.text:__TI_printfi)
$.text:llabs:rts6740_elf.lib<llabs.c.obj>$0x0  $Tramp$S$$llabs
   00802600     2000e400     2000e240   rts6740_elf.lib : imath64.c.obj (.text:__c6xabi_divlli)
                             2000e26c                   : imath64.c.obj (.text:__c6xabi_divlli)
$.text:__c6xabi_llshl:rts6740_elf.lib<llshift.c.obj>$0x0  $Tramp$S$$__c6xabi_llshl
   007ff0e0     2000e420     2000e02c   rts6740_elf.lib : imath64.c.obj (.text:__c6xabi_divull)
                             2000e054                   : imath64.c.obj (.text:__c6xabi_divull)
                             2000e190                   : imath64.c.obj (.text:__c6xabi_divull)
$.text:open:rts6740_elf.lib<open.c.obj>$0x0  $Tramp$S$$open
   007f1040     2000e7c0     2000e5b4   rts6740_elf.lib : fopen.c.obj (.text:_openfile)
$.text:unlink:rts6740_elf.lib<unlink.c.obj>$0x0  $Tramp$S$$unlink
   007ffbe0     2000e960     2000e8a4   rts6740_elf.lib : fclose.c.obj (.text:__TI_closefile)
$.text:close:rts6740_elf.lib<close.c.obj>$0x0  $Tramp$S$$close
   007fb620     2000e980     2000e850   rts6740_elf.lib : fclose.c.obj (.text:__TI_closefile)
$.text:free:dss_pe674.oe674$0x0  $Tramp$S$$free
   00801a60     2000e9a0     2000e828   rts6740_elf.lib : fclose.c.obj (.text:__TI_closefile)
$.text:__TI_doflush:rts6740_elf.lib<fflush.c.obj>$0x0  $Tramp$S$$__TI_doflush
   007fd8e0     2000e9c0     2000e808   rts6740_elf.lib : fclose.c.obj (.text:__TI_closefile)
$.text:read:rts6740_elf.lib<read.c.obj>$0x0  $Tramp$S$$read
   00800ba0     200fee20     2000eb70   rts6740_elf.lib : fread.c.obj (.text:fread)
$.text:__TI_buff_read:rts6740_elf.lib<_bufread.c.obj>$0x0  $Tramp$S$$__TI_buff_read
   007f7340     200fee40     2000eaa8   rts6740_elf.lib : fread.c.obj (.text:fread)
$.text:__TI_rd_ok:rts6740_elf.lib<_io_perm.c.obj>$0x0  $Tramp$S$$__TI_rd_ok
   007fd980     200fee60     2000ea08   rts6740_elf.lib : fread.c.obj (.text:fread)
$.text:__TI_frcmpyd_div:rts6740_elf.lib<frcmpyd_div.c.obj>$0x0  $Tramp$S$$__TI_frcmpyd_div
   008018a0     200fee80     2000dd7c   rts6740_elf.lib : divd.c.obj (.text:__c6xabi_divd)
                             2000ddac                   : divd.c.obj (.text:__c6xabi_divd)
                             2000ddd4                   : divd.c.obj (.text:__c6xabi_divd)
                             2000de84                   : divd.c.obj (.text:__c6xabi_divd)
$.text:__c6xabi_llshru:rts6740_elf.lib<llshift.c.obj>$0x0  $Tramp$S$$__c6xabi_llshru
   00800960     200feea0     2000dd54   rts6740_elf.lib : divd.c.obj (.text:__c6xabi_divd)
                             2000e1c0                   : imath64.c.obj (.text:__c6xabi_divull)
$.text:modf:rts6740_elf.lib<modf.c.obj>$0x0  $Tramp$S$$modf
   007fc6a0     200feec0     2000d918   rts6740_elf.lib : pow.c.obj (.text:pow)
$.text:__c6xabi_trunc:rts6740_elf.lib<trunc.c.obj>$0x0  $Tramp$S$$__c6xabi_trunc
   00802480     200feee0     2000d840   rts6740_elf.lib : pow.c.obj (.text:pow)
$.text:__c6xabi_nround:rts6740_elf.lib<round.c.obj>$0x0  $Tramp$S$$__c6xabi_nround
   007fdac0     200fef00     2000d4c4   rts6740_elf.lib : pow.c.obj (.text:pow)
                             2000d4d8                   : pow.c.obj (.text:pow)
                             2000d574                   : pow.c.obj (.text:pow)
                             2000d5a4                   : pow.c.obj (.text:pow)
                             2000d694                   : pow.c.obj (.text:pow)
                             2000d6d4                   : pow.c.obj (.text:pow)
                             2000d8ac                   : pow.c.obj (.text:pow)

[76 trampolines]
[231 trampoline calls]


GLOBAL SYMBOLS: SORTED ALPHABETICALLY BY Name 

address   name                                                         
-------   ----                                                         
007ffd60  AOAHWA_waitEdma                                              
007f7b80  AoAProcHWA_ConvertFov                                        
007ee480  AoAProcHWA_PrepareRangeAzimuthHeatmap                        
007ed400  AoAProcHWA_XYZestimation                                     
007f9e80  AoAProcHWA_cfgAndTrigger_EDMA_2DFFT                          
008025e0  C$$EXIT                                                      
00800958  C$$IO$$                                                      
007fbb60  CFARCAHWA_config_EDMA                                        
007f49a0  CFARHWA_cfarRange_AND_cfarDoppler                            
007fe680  CFARHWA_convHwaCfarDetListToDetMask                          
007fcee0  CFARHWA_fovConvertDoppler                                    
007fe700  CFARHWA_fovConvertRange                                      
007fbc20  CFARHWA_prepareHwaRunTime                                    
007fcf80  CFARHWA_saveConfiguration                                    
007ffdc0  CFARHWA_triggerCFAR                                          
007f9460  DPEDMAHWA_configOneHotSignature                              
007f7cc0  DPEDMAHWA_configTwoHotSignature                              
007f2a20  DPEDMA_configSyncAB                                          
007f2be0  DPEDMA_configSyncA_singleFrame                               
007fd0c0  DPEDMA_setup_shadow_link                                     
200079a0  DPM_deinit                                                   
20007f20  DPM_execute                                                  
200070e0  DPM_init                                                     
20007b20  DPM_ioctl                                                    
200088a0  DPM_listAdd                                                  
20008780  DPM_listCat                                                  
200088e0  DPM_listRemove                                               
20008840  DPM_msgInitHeader                                            
20007440  DPM_msgRecv                                                  
20008380  DPM_notifyExecute                                            
20008680  DPM_pipeDeinit                                               
20008700  DPM_pipeInit                                                 
20008420  DPM_pipeRecv                                                 
20008000  DPM_pipeSend                                                 
200084c0  DPM_start                                                    
20008560  DPM_stop                                                     
007ea9e0  DPU_AoAProcHWA_config                                        
007f6200  DPU_AoAProcHWA_control                                       
00800000  DPU_AoAProcHWA_deinit                                        
007f16a0  DPU_AoAProcHWA_init                                          
007e7860  DPU_AoAProcHWA_process                                       
007f4b40  DPU_CFARCAProcHWA_config                                     
007f7e00  DPU_CFARCAProcHWA_control                                    
00800060  DPU_CFARCAProcHWA_deinit                                     
007fa080  DPU_CFARCAProcHWA_init                                       
007ee720  DPU_CFARCAProcHWA_process                                    
007e19a0  DPU_DopplerProcHWA_config                                    
008000c0  DPU_DopplerProcHWA_deinit                                    
007f4ce0  DPU_DopplerProcHWA_init                                      
007f4e80  DPU_DopplerProcHWA_process                                   
007e4000  DPU_RangeProcHWA_config                                      
007f2da0  DPU_RangeProcHWA_control                                     
007fe800  DPU_RangeProcHWA_deinit                                      
007f5020  DPU_RangeProcHWA_init                                        
007e24e0  DPU_RangeProcHWA_process                                     
007fa180  DPU_StaticClutterProc_config                                 
007f2f60  DPU_StaticClutterProc_configEdma                             
00800120  DPU_StaticClutterProc_deinit                                 
007fe880  DPU_StaticClutterProc_init                                   
007ebee0  DPU_StaticClutterProc_process                                
007fe900  DPU_StaticClutterProc_waitInData                             
007fe980  DPU_StaticClutterProc_waitOutData                            
00802100  EDMA3ChannelToParamMap                                       
00802120  EDMA3ClrCCErr                                                
00800180  EDMA3ClrEvt                                                  
008001e0  EDMA3ClrIntr                                                 
00800240  EDMA3ClrMissEvt                                              
00801560  EDMA3DisableDmaEvt                                           
008002a0  EDMA3DisableEvtIntr                                          
00802140  EDMA3DisableQdmaEvt                                          
007fd160  EDMA3EnableChInShadowReg                                     
00800300  EDMA3EnableDmaEvt                                            
00800360  EDMA3EnableEvtIntr                                           
00802160  EDMA3EnableQdmaEvt                                           
00802180  EDMA3ErrIntrHighStatusGet                                    
008021a0  EDMA3GetCCErrStatus                                          
008021c0  EDMA3GetErrIntrStatus                                        
008021e0  EDMA3GetIntrStatus                                           
007f7f40  EDMA3Init                                                    
00802200  EDMA3IntrStatusHighGet                                       
007fea00  EDMA3MapChToEvtQ                                             
008015a0  EDMA3MapQdmaChToPaRAM                                        
00802220  EDMA3QdmaClrMissEvt                                          
00802240  EDMA3QdmaGetErrIntrStatus                                    
008003c0  EDMA3SetEvt                                                  
008015e0  EDMA3SetPaRAM                                                
00801620  EDMA3SetQdmaTrigWord                                         
007fad60  EDMA_close                                                   
007ed980  EDMA_configChannel                                           
007edc40  EDMA_configErrorMonitoring                                   
007f9580  EDMA_configParamSet                                          
007fd200  EDMA_disableChannel                                          
007fd2a0  EDMA_enableChannel                                           
00802260  EDMA_getNumInstances                                         
007f2480  EDMA_init                                                    
007fae40  EDMA_isTransferComplete                                      
007feb00  EDMA_linkParamSets                                           
007ee9c0  EDMA_open                                                    
008004e0  EDMA_setDestinationAddress                                   
00800540  EDMA_setSourceAddress                                        
007fbe60  EDMA_startDmaTransfer                                        
007f81c0  EDMA_startTransfer                                           
00802280  EDMAsetRegion                                                
20009900  GaussianNoise                                                
007fd340  HOSTclose                                                    
007fb000  HOSTlseek                                                    
007fb0e0  HOSTopen                                                     
007fbf20  HOSTread                                                     
007f5360  HOSTrename                                                   
007fbfe0  HOSTunlink                                                   
007fb1c0  HOSTwrite                                                    
007fc0a0  HWA_close                                                    
007eada0  HWA_configCommon                                             
007e2ec0  HWA_configParamSet                                           
007f8300  HWA_configRam                                                
007fd480  HWA_disableDoneInterrupt                                     
007fa280  HWA_disableParamSetInterrupt                                 
007fd520  HWA_enable                                                   
007fd5c0  HWA_enableDoneInterrupt                                      
007f6380  HWA_enableParamSetInterrupt                                  
007fc160  HWA_getDMAChanIndex                                          
007fc220  HWA_getDMAconfig                                             
007fc3a0  HWA_getHWAMemInfo                                            
008022a0  HWA_init                                                     
007eec60  HWA_open                                                     
007fd660  HWA_readCFARPeakCountReg                                     
007feb80  HWA_reset                                                    
007fec00  HWA_setDMA2ACCManualTrig                                     
007f3120  HWAutil_configCFAR                                           
008022c0  HwiP_Params_init                                             
00801660  HwiP_create                                                  
008016a0  HwiP_delete                                                  
008022e0  HwiP_disable                                                 
00802300  HwiP_disableInterrupt                                        
00802320  HwiP_enableInterrupt                                         
00802340  HwiP_restore                                                 
0081fc28  MCPI_FailSignature                                           
20007040  MCPI_Initialize                                              
0081fc36  MCPI_Result                                                  
00f00000  MCPI_logMessage                                              
20006de0  MCPI_setFeatureTestResult                                    
20007080  MCPI_setTestResult                                           
00800660  Mailbox_Config_init                                          
007f6f20  Mailbox_close                                                
0081e5ac  Mailbox_defaultCfg                                           
007e9660  Mailbox_open                                                 
007f32e0  Mailbox_read                                                 
007fa380  Mailbox_readFlush                                            
007f0c00  Mailbox_write                                                
00802360  MemoryP_ctrlAlloc                                            
00802380  MemoryP_ctrlFree                                             
008023a0  MemoryP_getStats                                             
007eb500  ObjectDetection_Test_CompareToRef                            
007fec80  ObjectDetection_Test_DPCDeinit                               
007f6500  ObjectDetection_Test_DPCInit                                 
008006c0  ObjectDetection_Test_EDMA_errorCallbackFxn                   
00800720  ObjectDetection_Test_EDMA_transferControllerErrorCallbackFxn 
007f34a0  ObjectDetection_Test_configDPC                               
007f8440  ObjectDetection_Test_convertCoordinates                      
008017a0  ObjectDetection_Test_edmaClose                               
007fd7a0  ObjectDetection_Test_edmaInit                                
007f5500  ObjectDetection_Test_edmaOpen                                
00800780  ObjectDetection_Test_hwaClose                                
007fed20  ObjectDetection_Test_hwaOpen                                 
007feda0  ObjectDetection_Test_initComponents                          
007f56a0  ObjectDetection_Test_printAndCheckResults                    
007e83c0  ObjectDetection_Test_setProfile                              
007fee20  ObjectDetection_Test_startDPC                                
007feec0  ObjectDetection_Test_stopDPC                                 
007e0200  ObjectDetection_Test_task                                    
20009a80  RandSimple                                                   
007fd840  SOC_SystemISR                                                
0081f6b0  SOC_TranslateAddr_LUT                                        
007f3660  SOC_deregisterSysIntListener                                 
007fa580  SOC_deviceInit                                               
008007e0  SOC_enableHWA                                                
008017e0  SOC_getInAddr_LUTType                                        
00801820  SOC_getOutAddr_LUTType                                       
007f96a0  SOC_init                                                     
00801860  SOC_isMSSOperational                                         
007f71e0  SOC_registerSysIntListener                                   
00800840  SOC_setDSSLinkState                                          
007fa680  SOC_translateAddress                                         
008008a0  SOC_unhaltBSS                                                
008023c0  SemaphoreP_Params_init                                       
007fef60  SemaphoreP_create                                            
008023e0  SemaphoreP_delete                                            
00802400  SemaphoreP_pend                                              
00802420  SemaphoreP_post                                              
00802420  SemaphoreP_postFromClock                                     
00802420  SemaphoreP_postFromISR                                       
007fc520  _DPC_Objdet_Assert                                           
00802440  _DebugP_assert                                               
00000000  __ASM__                                                      
0081b600  __CIOBUF_                                                    
00000098  __ISA__                                                      
000000b0  __PLAT__                                                     
000000d0  __TARG__                                                     
UNDEFED   __TI_CINIT_Base                                              
UNDEFED   __TI_CINIT_Limit                                             
UNDEFED   __TI_Handler_Table_Base                                      
UNDEFED   __TI_Handler_Table_Limit                                     
UNDEFED   __TI_INITARRAY_Base                                          
UNDEFED   __TI_INITARRAY_Limit                                         
0081b600  __TI_STACK_END                                               
00000800  __TI_STACK_SIZE                                              
0081b720  __TI_STATIC_BASE                                             
UNDEFED   __TI_TLS_INIT_Base                                           
UNDEFED   __TI_TLS_INIT_Limit                                          
007f7340  __TI_buff_read                                               
2000e720  __TI_cleanup                                                 
0081faa0  __TI_cleanup_ptr                                             
2000e7e0  __TI_closefile                                               
007fd8e0  __TI_doflush                                                 
0081faa4  __TI_dtors_ptr                                               
0081faa8  __TI_enable_exit_profile_output                              
008018a0  __TI_frcmpyd_div                                             
0081f7ac  __TI_ft_end                                                  
007fb380  __TI_ltoa                                                    
ffffffff  __TI_pprof_out_hndl                                          
20009b80  __TI_printfi                                                 
ffffffff  __TI_prof_data_size                                          
ffffffff  __TI_prof_data_start                                         
007fd980  __TI_rd_ok                                                   
007fefe0  __TI_readmsg                                                 
007fcd60  __TI_tls_init                                                
0081aca0  __TI_tmpnams                                                 
00800900  __TI_writemsg                                                
007fb460  __TI_wrt_ok                                                  
000000f8  __TRDR__                                                     
ffffffff  __binit__                                                    
2000d9a0  __c6xabi_divd                                                
007eef00  __c6xabi_divf                                                
007fb540  __c6xabi_divi                                                
2000e200  __c6xabi_divlli                                              
007fc5e0  __c6xabi_divu                                                
007f3820  __c6xabi_divul                                               
2000dfa0  __c6xabi_divull                                              
00802460  __c6xabi_errno_addr                                          
007ff060  __c6xabi_fixdu                                               
007fda20  __c6xabi_fixfu                                               
008018e0  __c6xabi_isinf                                               
007ff0e0  __c6xabi_llshl                                               
00800960  __c6xabi_llshru                                              
007fdac0  __c6xabi_nround                                              
008024a0  __c6xabi_pop_rts                                             
008024c0  __c6xabi_push_rts                                            
2000e340  __c6xabi_remlli                                              
007fdb60  __c6xabi_remu                                                
007fdac0  __c6xabi_roundl                                              
00801920  __c6xabi_strasgi_64plus                                      
00802480  __c6xabi_trunc                                               
00802480  __c6xabi_truncl                                              
ffffffff  __c_args__                                                   
007fb540  __divi                                                       
007fc5e0  __divu                                                       
0081f8ec  __errno                                                      
008024a0  __pop_rts                                                    
008024c0  __push_rts                                                   
007fdb60  __remu                                                       
00801920  __strasgi_64plus                                             
00801960  _args_main                                                   
007f97c0  _auto_init_elf                                               
007fdc00  _c_int00                                                     
0081e048  _ctypes_                                                     
0081f338  _device                                                      
0081ee98  _ftable                                                      
0081f494  _lock                                                        
008024e0  _nop                                                         
00802560  _register_lock                                               
00802580  _register_unlock                                             
008025a0  _signbit                                                     
0081ae00  _stack                                                       
0081f078  _stream                                                      
2000e3a0  _subcull                                                     
0081f5ec  _unlock                                                      
008025e0  abort                                                        
007f5840  asin                                                         
007f5840  asinl                                                        
2000ec20  atan                                                         
007f39e0  atan2                                                        
007f39e0  atan2l                                                       
2000ec20  atanl                                                        
007fa780  atoi                                                         
ffffffff  binit                                                        
007fb620  close                                                        
007ec220  cos                                                          
007ec220  cosl                                                         
0081ade0  edmaDbg                                                      
0081f8ec  errno                                                        
007fb700  exit                                                         
2000e8e0  fclose                                                       
007fa880  fflush                                                       
007fdca0  finddevice                                                   
2000e600  fopen                                                        
007f3ba0  fputc                                                        
007ec540  fputs                                                        
2000e9e0  fread                                                        
00801a60  free                                                         
007f3d60  frexp                                                        
007f3d60  frexpl                                                       
007fa980  fseek                                                        
0081fc34  gCurrTestId                                                  
0081f8a4  gDPC_ObjectDetectionCfg                                      
0081b740  gDPM                                                         
0081faac  gDPMHwAttrib                                                 
0081e538  gDPMMessageFxnTable                                          
0081fa58  gDPMRemoteTable                                              
0081a918  gDataPathObj                                                 
0081e4a0  gEdmaHwAttrs                                                 
20000000  gFrameConfig                                                 
00814e20  gGenFrameDataObj                                             
0081fb10  gHWADriverPtr                                                
0081f7e8  gHWAHwCfg                                                    
0081fa70  gHwaEDMAChanMapping                                          
0081b724  gMCPILogMessageSize                                          
0081f9e0  gMailboxDssBssHwCfg                                          
0081f9f8  gMailboxDssMssHwCfg                                          
0081f554  gMailboxMCB                                                  
0081b728  gMaxL3RamUsage                                               
0081b72c  gMaxL3RamUsageTestId                                         
0081b730  gMaxTCMUsage                                                 
0081b734  gMaxTCMUsageTestId                                           
0081b720  gNumSubFrames                                                
0081fc2c  gObjDetObj                                                   
2000ee20  gObjectDetection_Test_L3Heap                                 
00802e20  gObjectDetection_Test_TCMramHeap                             
21080000  gObjectDetection_Test_chirpData                              
0081b721  gReadTestConfigFromBinFile                                   
0081fa10  gSOCHwAttrib                                                 
20008dc0  genChirpData                                                 
007f98e0  getdevice                                                    
20009620  initFrameData                                                
007f3f20  ldexp                                                        
007f3f20  ldexpl                                                       
00802600  llabs                                                        
007f2660  log                                                          
007f2660  logl                                                         
00800a80  lseek                                                        
007fb7e0  main                                                         
007ffa60  malloc                                                       
00802620  mathUtils_ceilLog2                                           
00802640  mathUtils_floorLog2                                          
007f1aa0  mathUtils_genWindow                                          
00801aa0  mathUtils_pow2roundup                                        
00800ae0  memccpy                                                      
007fdd40  memcpy                                                       
007fb8c0  memset                                                       
00800b40  mmwavelib_vecsubc                                            
007fdde0  mmwavelib_vecsum                                             
007fc6a0  modf                                                         
007fc6a0  modfl                                                        
007f1040  open                                                         
0081adf0  parmbuf                                                      
2000d160  pow                                                          
2000d160  powl                                                         
007fb9a0  printf                                                       
007f3ba0  putc                                                         
00802660  putchar                                                      
00800ba0  read                                                         
0081b744  regionId                                                     
007ffbe0  remove                                                       
007f3f20  scalbn                                                       
007f3f20  scalbnl                                                      
007f42a0  setvbuf                                                      
007ecb60  sin                                                          
007ecb60  sinl                                                         
007ff2e0  snprintf                                                     
0081fc30  socHandle                                                    
00800c00  sprintf                                                      
007f74a0  sqrt                                                         
007f74a0  sqrtl                                                        
007fde80  sqrtsp                                                       
0081f8c8  ti_sysbios_BIOS_Module__state__V                             
00801ce0  ti_sysbios_BIOS_RtsGateProxy_Handle__label__S                
008026a0  ti_sysbios_BIOS_RtsGateProxy_enter__E                        
008026c0  ti_sysbios_BIOS_RtsGateProxy_leave__E                        
00802960  ti_sysbios_BIOS_RtsGateProxy_query__E                        
007ff360  ti_sysbios_BIOS_atExitFunc__I                                
00800c60  ti_sysbios_BIOS_errorRaiseHook__I                            
00801b20  ti_sysbios_BIOS_exitFunc__I                                  
008026e0  ti_sysbios_BIOS_exit__E                                      
00802700  ti_sysbios_BIOS_getCpuFreq__E                                
00802720  ti_sysbios_BIOS_linkedWithIncorrectBootLibrary__E            
00802740  ti_sysbios_BIOS_nullFunc__I                                  
007ff3e0  ti_sysbios_BIOS_registerRTSLock__I                           
00800cc0  ti_sysbios_BIOS_removeRTSLock__I                             
00801b60  ti_sysbios_BIOS_rtsLock__I                                   
00801ba0  ti_sysbios_BIOS_rtsUnlock__I                                 
00802760  ti_sysbios_BIOS_setThreadType__E                             
00800d20  ti_sysbios_BIOS_startFunc__I                                 
00802780  ti_sysbios_BIOS_start__E                                     
008027a0  ti_sysbios_family_c62_TaskSupport_Module__startupDone__S     
00801a20  ti_sysbios_family_c62_TaskSupport_buildTaskStack             
008027c0  ti_sysbios_family_c62_TaskSupport_checkStack__E              
008027e0  ti_sysbios_family_c62_TaskSupport_getStackAlignment__E       
008025c0  ti_sysbios_family_c62_TaskSupport_glue                       
0081e14c  ti_sysbios_family_c62_TaskSupport_stackAlignment__C          
00800d80  ti_sysbios_family_c62_TaskSupport_start__E                   
007ff1e0  ti_sysbios_family_c62_TaskSupport_swap__E                    
0081e41c  ti_sysbios_family_c64p_Cache_E_invalidL1CacheSize__C         
0081e49c  ti_sysbios_family_c64p_Cache_E_invalidL2CacheSize__C         
0081e534  ti_sysbios_family_c64p_Cache_MAR0_31__C                      
0081e7fc  ti_sysbios_family_c64p_Cache_MAR128_159__C                   
0081e874  ti_sysbios_family_c64p_Cache_MAR160_191__C                   
0081e8c8  ti_sysbios_family_c64p_Cache_MAR192_223__C                   
0081e8cc  ti_sysbios_family_c64p_Cache_MAR224_255__C                   
0081e8d0  ti_sysbios_family_c64p_Cache_MAR32_63__C                     
0081e8d4  ti_sysbios_family_c64p_Cache_MAR64_95__C                     
0081e8d8  ti_sysbios_family_c64p_Cache_MAR96_127__C                    
0081d196  ti_sysbios_family_c64p_Cache_Module__id__C                   
0081fa6c  ti_sysbios_family_c64p_Cache_Module__state__V                
007ef960  ti_sysbios_family_c64p_Cache_Module_startup__E               
007f7600  ti_sysbios_family_c64p_Cache_getL1DInitSize__I               
007f7760  ti_sysbios_family_c64p_Cache_getL1PInitSize__I               
007f59e0  ti_sysbios_family_c64p_Cache_getL2InitSize__I                
00004000  ti_sysbios_family_c64p_Cache_l1dSize                         
00004000  ti_sysbios_family_c64p_Cache_l1pSize                         
00000000  ti_sysbios_family_c64p_Cache_l2Size                          
00800de0  ti_sysbios_family_c64p_Cache_setMar__E                       
0081e8dc  ti_sysbios_family_c64p_EventCombiner_A_invalidEventId__C     
0081e888  ti_sysbios_family_c64p_EventCombiner_EVTMASK__C              
0081e8e0  ti_sysbios_family_c64p_EventCombiner_EVTRegs__C              
0081e8e4  ti_sysbios_family_c64p_EventCombiner_E_unpluggedEvent__C     
0081e8e8  ti_sysbios_family_c64p_EventCombiner_Module__diagsEnabled__C 
0081e8ec  ti_sysbios_family_c64p_EventCombiner_Module__diagsIncluded__C
0081e8f0  ti_sysbios_family_c64p_EventCombiner_Module__diagsMask__C    
0081e14a  ti_sysbios_family_c64p_EventCombiner_Module__id__C           
0081ea98  ti_sysbios_family_c64p_EventCombiner_Module__state__V        
00800e40  ti_sysbios_family_c64p_EventCombiner_Module_startup__E       
007f1ca0  ti_sysbios_family_c64p_EventCombiner_disableEvent__E         
007f1260  ti_sysbios_family_c64p_EventCombiner_dispatchPlug__E         
007ef1a0  ti_sysbios_family_c64p_EventCombiner_dispatch__E             
007f1480  ti_sysbios_family_c64p_EventCombiner_enableEvent__E          
00800ea0  ti_sysbios_family_c64p_EventCombiner_unused__E               
0081e8f4  ti_sysbios_family_c64p_Exception_E_exceptionMax__C           
0081ea6c  ti_sysbios_family_c64p_Exception_Module__id__C               
0081f818  ti_sysbios_family_c64p_Exception_Module__state__V            
007fdf20  ti_sysbios_family_c64p_Exception_Module_startup__E           
007f6680  ti_sysbios_family_c64p_Exception_dispatch__E                 
0081e8f8  ti_sysbios_family_c64p_Exception_exceptionHook__C            
0081e8fc  ti_sysbios_family_c64p_Exception_externalHook__C             
007e47e0  ti_sysbios_family_c64p_Exception_handler__I                  
007f0320  ti_sysbios_family_c64p_Exception_internalHandler__I          
0081e900  ti_sysbios_family_c64p_Exception_internalHook__C             
0081e904  ti_sysbios_family_c64p_Exception_nmiHook__C                  
0081ea6e  ti_sysbios_family_c64p_Exception_useInternalBuffer__C        
007e0000  ti_sysbios_family_c64p_Hwi0                                  
0081e908  ti_sysbios_family_c64p_Hwi_INTRMUX1Address__C                
00802800  ti_sysbios_family_c64p_Hwi_Module__startupDone__F            
00802800  ti_sysbios_family_c64p_Hwi_Module__startupDone__S            
0081f428  ti_sysbios_family_c64p_Hwi_Module__state__V                  
007f78c0  ti_sysbios_family_c64p_Hwi_Module_startup__E                 
0081f3b0  ti_sysbios_family_c64p_Hwi_Object__table__V                  
00802820  ti_sysbios_family_c64p_Hwi_clearInterrupt__E                 
00801be0  ti_sysbios_family_c64p_Hwi_disableInterrupt__E               
007f18a0  ti_sysbios_family_c64p_Hwi_dispatchAlways                    
007fdfc0  ti_sysbios_family_c64p_Hwi_dispatchC__I                      
007fc820  ti_sysbios_family_c64p_Hwi_dispatchCore__I                   
00801c20  ti_sysbios_family_c64p_Hwi_enableInterrupt__E                
007fe060  ti_sysbios_family_c64p_Hwi_getStackInfo__E                   
007e0000  ti_sysbios_family_c64p_Hwi_int0                              
007e0020  ti_sysbios_family_c64p_Hwi_int1                              
007e0140  ti_sysbios_family_c64p_Hwi_int10                             
007e0160  ti_sysbios_family_c64p_Hwi_int11                             
007e0180  ti_sysbios_family_c64p_Hwi_int12                             
007e01a0  ti_sysbios_family_c64p_Hwi_int13                             
007e01c0  ti_sysbios_family_c64p_Hwi_int14                             
007e01e0  ti_sysbios_family_c64p_Hwi_int15                             
007e0040  ti_sysbios_family_c64p_Hwi_int2                              
007e0060  ti_sysbios_family_c64p_Hwi_int3                              
007e0080  ti_sysbios_family_c64p_Hwi_int4                              
007e00a0  ti_sysbios_family_c64p_Hwi_int5                              
007e00c0  ti_sysbios_family_c64p_Hwi_int6                              
007e00e0  ti_sysbios_family_c64p_Hwi_int7                              
007e0100  ti_sysbios_family_c64p_Hwi_int8                              
007e0120  ti_sysbios_family_c64p_Hwi_int9                              
00802840  ti_sysbios_family_c64p_Hwi_startup__E                        
008009c0  ti_sysbios_family_c64p_Hwi_switchAndDispatch__I              
00802860  ti_sysbios_family_c64p_Hwi_switchFromBootStack__E            
00802880  ti_sysbios_family_c64p_TimestampProvider_Module_startup__E   
008028a0  ti_sysbios_family_c64p_TimestampProvider_get32__E            
00802700  ti_sysbios_family_c64p_TimestampProvider_getFreq__E          
00800a20  ti_sysbios_family_xxx_Hwi_switchAndRunFunc                   
00801c60  ti_sysbios_gates_GateHwi_Handle__label__S                    
008028c0  ti_sysbios_gates_GateHwi_Instance_init__E                    
0081e5d0  ti_sysbios_gates_GateHwi_Module__FXNS__C                     
0081fab4  ti_sysbios_gates_GateHwi_Module__root__V                     
0081e6c0  ti_sysbios_gates_GateHwi_Object__DESC__C                     
0081e7b4  ti_sysbios_gates_GateHwi_Object__PARAMS__C                   
007ff460  ti_sysbios_gates_GateHwi_Object__create__S                   
00801ca0  ti_sysbios_gates_GateHwi_Object__delete__S                   
0081fb18  ti_sysbios_gates_GateHwi_Object__table__V                    
008028e0  ti_sysbios_gates_GateHwi_enter__E                            
00802900  ti_sysbios_gates_GateHwi_leave__E                            
00802920  ti_sysbios_gates_GateHwi_query__E                            
0081e90c  ti_sysbios_gates_GateMutex_A_badContext__C                   
00801ce0  ti_sysbios_gates_GateMutex_Handle__label__S                  
0081e910  ti_sysbios_gates_GateMutex_Instance_State_sem__O             
00802940  ti_sysbios_gates_GateMutex_Instance_finalize__E              
00801d20  ti_sysbios_gates_GateMutex_Instance_init__E                  
0081e5f4  ti_sysbios_gates_GateMutex_Module__FXNS__C                   
0081e914  ti_sysbios_gates_GateMutex_Module__diagsEnabled__C           
0081e918  ti_sysbios_gates_GateMutex_Module__diagsIncluded__C          
0081e91c  ti_sysbios_gates_GateMutex_Module__diagsMask__C              
0081ea70  ti_sysbios_gates_GateMutex_Module__id__C                     
0081fabc  ti_sysbios_gates_GateMutex_Module__root__V                   
0081e6e0  ti_sysbios_gates_GateMutex_Object__DESC__C                   
0081e7cc  ti_sysbios_gates_GateMutex_Object__PARAMS__C                 
007ff4e0  ti_sysbios_gates_GateMutex_Object__create__S                 
00800f00  ti_sysbios_gates_GateMutex_Object__delete__S                 
0081f730  ti_sysbios_gates_GateMutex_Object__table__V                  
007f00c0  ti_sysbios_gates_GateMutex_enter__E                          
00801d60  ti_sysbios_gates_GateMutex_leave__E                          
00802960  ti_sysbios_gates_GateMutex_query__E                          
0081e920  ti_sysbios_hal_Hwi_E_stackOverflow__C                        
00802800  ti_sysbios_hal_Hwi_HwiProxy_Module__startupDone__S           
00802820  ti_sysbios_hal_Hwi_HwiProxy_clearInterrupt__E                
00801be0  ti_sysbios_hal_Hwi_HwiProxy_disableInterrupt__E              
00801c20  ti_sysbios_hal_Hwi_HwiProxy_enableInterrupt__E               
007fe060  ti_sysbios_hal_Hwi_HwiProxy_getStackInfo__E                  
00802840  ti_sysbios_hal_Hwi_HwiProxy_startup__E                       
00802860  ti_sysbios_hal_Hwi_HwiProxy_switchFromBootStack__E           
0081ea72  ti_sysbios_hal_Hwi_Module__id__C                             
00802980  ti_sysbios_hal_Hwi_Module_startup__E                         
0081fac8  ti_sysbios_hal_Hwi_Object__table__V                          
007fe100  ti_sysbios_hal_Hwi_checkStack                                
00802820  ti_sysbios_hal_Hwi_clearInterrupt__E                         
00801be0  ti_sysbios_hal_Hwi_disableInterrupt__E                       
00801c20  ti_sysbios_hal_Hwi_enableInterrupt__E                        
007fe060  ti_sysbios_hal_Hwi_getStackInfo__E                           
00800f60  ti_sysbios_hal_Hwi_initStack                                 
00802840  ti_sysbios_hal_Hwi_startup__E                                
00802860  ti_sysbios_hal_Hwi_switchFromBootStack__E                    
0081e924  ti_sysbios_heaps_HeapBuf_Instance_State_freeList__O          
0081fac4  ti_sysbios_heaps_HeapBuf_Module__state__V                    
007f5b80  ti_sysbios_heaps_HeapBuf_Module_startup__E                   
0081e928  ti_sysbios_heaps_HeapBuf_Object__count__C                    
008029a0  ti_sysbios_heaps_HeapBuf_Object__get__S                      
0081e92c  ti_sysbios_heaps_HeapBuf_numConstructedHeaps__C              
0081e930  ti_sysbios_heaps_HeapMem_A_align__C                          
0081e934  ti_sysbios_heaps_HeapMem_A_heapSize__C                       
0081e938  ti_sysbios_heaps_HeapMem_A_invalidFree__C                    
0081e93c  ti_sysbios_heaps_HeapMem_A_zeroBlock__C                      
0081e940  ti_sysbios_heaps_HeapMem_E_memory__C                         
00801da0  ti_sysbios_heaps_HeapMem_Handle__label__S                    
0080ce20  ti_sysbios_heaps_HeapMem_Instance_State_0_buf__A             
007ece40  ti_sysbios_heaps_HeapMem_Instance_init__E                    
00801ce0  ti_sysbios_heaps_HeapMem_Module_GateProxy_Handle__label__S   
008029c0  ti_sysbios_heaps_HeapMem_Module_GateProxy_enter__E           
008029e0  ti_sysbios_heaps_HeapMem_Module_GateProxy_leave__E           
00802960  ti_sysbios_heaps_HeapMem_Module_GateProxy_query__E           
0081e560  ti_sysbios_heaps_HeapMem_Module__FXNS__C                     
0081e944  ti_sysbios_heaps_HeapMem_Module__diagsEnabled__C             
0081e948  ti_sysbios_heaps_HeapMem_Module__diagsIncluded__C            
0081e94c  ti_sysbios_heaps_HeapMem_Module__diagsMask__C                
0081e950  ti_sysbios_heaps_HeapMem_Module__gateObj__C                  
0081ea74  ti_sysbios_heaps_HeapMem_Module__id__C                       
0081fad0  ti_sysbios_heaps_HeapMem_Module__root__V                     
0081e700  ti_sysbios_heaps_HeapMem_Object__DESC__C                     
0081e618  ti_sysbios_heaps_HeapMem_Object__PARAMS__C                   
0081e954  ti_sysbios_heaps_HeapMem_Object__count__C                    
007ff560  ti_sysbios_heaps_HeapMem_Object__create__S                   
00801de0  ti_sysbios_heaps_HeapMem_Object__delete__S                   
00801e20  ti_sysbios_heaps_HeapMem_Object__get__S                      
0081fa28  ti_sysbios_heaps_HeapMem_Object__table__V                    
007e6b80  ti_sysbios_heaps_HeapMem_allocUnprotected__E                 
007fc8e0  ti_sysbios_heaps_HeapMem_alloc__E                            
007e7200  ti_sysbios_heaps_HeapMem_freeUnprotected__E                  
00800fc0  ti_sysbios_heaps_HeapMem_free__E                             
007fc9a0  ti_sysbios_heaps_HeapMem_getStats__E                         
007ff5e0  ti_sysbios_heaps_HeapMem_init__I                             
00802a00  ti_sysbios_heaps_HeapMem_isBlocking__E                       
0081e958  ti_sysbios_heaps_HeapMem_reqAlign__C                         
0081e95c  ti_sysbios_knl_Clock_Module_State_clockQ__O                  
0081f878  ti_sysbios_knl_Clock_Module__state__V                        
00801020  ti_sysbios_knl_Clock_Module_startup__E                       
00802be0  ti_sysbios_knl_Clock_TimerProxy_Module__startupDone__S       
00802a20  ti_sysbios_knl_Clock_TimerProxy_getMaxTicks__E               
007f6060  ti_sysbios_knl_Clock_TimerProxy_startup__E                   
007ff660  ti_sysbios_knl_Clock_doTick__I                               
00802a40  ti_sysbios_knl_Clock_logTick__E                              
007f9a00  ti_sysbios_knl_Clock_workFunc__E                             
0081e898  ti_sysbios_knl_Idle_funcList__A                              
0081e8a0  ti_sysbios_knl_Idle_funcList__C                              
00802a60  ti_sysbios_knl_Idle_loop__E                                  
007ff6e0  ti_sysbios_knl_Idle_run__E                                   
00802a80  ti_sysbios_knl_Queue_Instance_init__E                        
0081fad8  ti_sysbios_knl_Queue_Module__root__V                         
0081e720  ti_sysbios_knl_Queue_Object__DESC__C                         
0081e7e4  ti_sysbios_knl_Queue_Object__PARAMS__C                       
00802aa0  ti_sysbios_knl_Queue_Object__get__S                          
00801080  ti_sysbios_knl_Queue_construct                               
00802ac0  ti_sysbios_knl_Queue_destruct                                
00802ae0  ti_sysbios_knl_Queue_empty__E                                
0081e960  ti_sysbios_knl_Semaphore_A_badContext__C                     
0081e964  ti_sysbios_knl_Semaphore_A_noEvents__C                       
0081e968  ti_sysbios_knl_Semaphore_A_overflow__C                       
0081e96c  ti_sysbios_knl_Semaphore_A_pendTaskDisabled__C               
0081e970  ti_sysbios_knl_Semaphore_Instance_State_pendQ__O             
00802b00  ti_sysbios_knl_Semaphore_Instance_finalize__E                
007f86c0  ti_sysbios_knl_Semaphore_Instance_init__E                    
0081e974  ti_sysbios_knl_Semaphore_Module__diagsEnabled__C             
0081e978  ti_sysbios_knl_Semaphore_Module__diagsIncluded__C            
0081e97c  ti_sysbios_knl_Semaphore_Module__diagsMask__C                
0081ea76  ti_sysbios_knl_Semaphore_Module__id__C                       
0081fae0  ti_sysbios_knl_Semaphore_Module__root__V                     
0081e740  ti_sysbios_knl_Semaphore_Object__DESC__C                     
0081e63c  ti_sysbios_knl_Semaphore_Object__PARAMS__C                   
008010e0  ti_sysbios_knl_Semaphore_Object__delete__S                   
00802b20  ti_sysbios_knl_Semaphore_Params__init__S                     
00801140  ti_sysbios_knl_Semaphore_construct                           
007ff760  ti_sysbios_knl_Semaphore_create                              
00802b40  ti_sysbios_knl_Semaphore_delete                              
00801e60  ti_sysbios_knl_Semaphore_destruct                            
007fe1a0  ti_sysbios_knl_Semaphore_pendTimeout__I                      
007e64e0  ti_sysbios_knl_Semaphore_pend__E                             
007f2840  ti_sysbios_knl_Semaphore_post__E                             
0081f238  ti_sysbios_knl_Swi_Module_State_0_readyQ__A                  
0081f970  ti_sysbios_knl_Swi_Module__state__V                          
008011a0  ti_sysbios_knl_Swi_Module_startup__E                         
0081e980  ti_sysbios_knl_Swi_Object__count__C                          
00801ea0  ti_sysbios_knl_Swi_Object__get__S                            
0081f848  ti_sysbios_knl_Swi_Object__table__V                          
00802b60  ti_sysbios_knl_Swi_disable__E                                
007ff7e0  ti_sysbios_knl_Swi_post__E                                   
007f4460  ti_sysbios_knl_Swi_restoreHwi__E                             
007f5d20  ti_sysbios_knl_Swi_runLoop__I                                
007fca60  ti_sysbios_knl_Swi_schedule__I                               
007ff860  ti_sysbios_knl_Swi_startup__E                                
0081e984  ti_sysbios_knl_Task_A_badPriority__C                         
0081e988  ti_sysbios_knl_Task_A_badTaskState__C                        
0081e98c  ti_sysbios_knl_Task_A_badThreadType__C                       
0081e990  ti_sysbios_knl_Task_A_badTimeout__C                          
0081e994  ti_sysbios_knl_Task_A_noPendElem__C                          
0081e998  ti_sysbios_knl_Task_A_sleepTaskDisabled__C                   
0081e99c  ti_sysbios_knl_Task_E_spOutOfBounds__C                       
0081e9a0  ti_sysbios_knl_Task_E_stackOverflow__C                       
0081adf8  ti_sysbios_knl_Task_Instance_State_0_hookEnv__A              
0081a518  ti_sysbios_knl_Task_Instance_State_0_stack__A                
007e7e40  ti_sysbios_knl_Task_Instance_finalize__E                     
007e9220  ti_sysbios_knl_Task_Instance_init__E                         
0081fb20  ti_sysbios_knl_Task_Module_State_0_idleTask__A               
0081f2b8  ti_sysbios_knl_Task_Module_State_0_readyQ__A                 
0081e9a4  ti_sysbios_knl_Task_Module_State_inactiveQ__O                
0081e9a8  ti_sysbios_knl_Task_Module__diagsEnabled__C                  
0081e9ac  ti_sysbios_knl_Task_Module__diagsIncluded__C                 
0081e9b0  ti_sysbios_knl_Task_Module__diagsMask__C                     
0081ea78  ti_sysbios_knl_Task_Module__id__C                            
0081fae8  ti_sysbios_knl_Task_Module__root__V                          
0081f5a4  ti_sysbios_knl_Task_Module__state__V                         
007f8800  ti_sysbios_knl_Task_Module_startup__E                        
0081e760  ti_sysbios_knl_Task_Object__DESC__C                          
0081e3d8  ti_sysbios_knl_Task_Object__PARAMS__C                        
0081e9b4  ti_sysbios_knl_Task_Object__count__C                         
00801ee0  ti_sysbios_knl_Task_Object__get__S                           
0081e9b8  ti_sysbios_knl_Task_Object__heap__C                          
0081f4f8  ti_sysbios_knl_Task_Object__table__V                         
00802b80  ti_sysbios_knl_Task_Params__init__S                          
008027a0  ti_sysbios_knl_Task_SupportProxy_Module__startupDone__S      
008027c0  ti_sysbios_knl_Task_SupportProxy_checkStack__E               
008027e0  ti_sysbios_knl_Task_SupportProxy_getStackAlignment__E        
00800d80  ti_sysbios_knl_Task_SupportProxy_start__E                    
007ff1e0  ti_sysbios_knl_Task_SupportProxy_swap__E                     
0081e9bc  ti_sysbios_knl_Task_allBlockedFunc__C                        
007fcb20  ti_sysbios_knl_Task_allBlockedFunction__I                    
007f4620  ti_sysbios_knl_Task_checkStacks__E                           
007fcbe0  ti_sysbios_knl_Task_create                                   
0081e9c0  ti_sysbios_knl_Task_defaultStackHeap__C                      
0081e9c4  ti_sysbios_knl_Task_defaultStackSize__C                      
00802ba0  ti_sysbios_knl_Task_disable__E                               
00801200  ti_sysbios_knl_Task_enter__I                                 
007f5ec0  ti_sysbios_knl_Task_exit__E                                  
0081e800  ti_sysbios_knl_Task_hooks__A                                 
0081e8a8  ti_sysbios_knl_Task_hooks__C                                 
0081e9c8  ti_sysbios_knl_Task_numConstructedTasks__C                   
007edf00  ti_sysbios_knl_Task_postInit__I                              
007ff8e0  ti_sysbios_knl_Task_processVitalTaskFlag__I                  
007ff960  ti_sysbios_knl_Task_restore__E                               
007f6800  ti_sysbios_knl_Task_schedule__I                              
007ff9e0  ti_sysbios_knl_Task_sleepTimeout__I                          
007e9e60  ti_sysbios_knl_Task_sleep__E                                 
007f8940  ti_sysbios_knl_Task_startCore__E                             
00802bc0  ti_sysbios_knl_Task_startup__E                               
0081e9cc  ti_sysbios_timers_rti_Timer_E_cannotSupport__C               
0081fa40  ti_sysbios_timers_rti_Timer_Module_State_0_device__A         
0081faf0  ti_sysbios_timers_rti_Timer_Module_State_0_handles__A        
0081fa80  ti_sysbios_timers_rti_Timer_Module_State_0_intFreqs__A       
0081e9d0  ti_sysbios_timers_rti_Timer_Module__diagsEnabled__C          
0081e9d4  ti_sysbios_timers_rti_Timer_Module__diagsIncluded__C         
0081e9d8  ti_sysbios_timers_rti_Timer_Module__diagsMask__C             
0081ea7a  ti_sysbios_timers_rti_Timer_Module__id__C                    
00802be0  ti_sysbios_timers_rti_Timer_Module__startupDone__F           
00802be0  ti_sysbios_timers_rti_Timer_Module__startupDone__S           
0081fa90  ti_sysbios_timers_rti_Timer_Module__state__V                 
007ee1c0  ti_sysbios_timers_rti_Timer_Module_startup__E                
0081f770  ti_sysbios_timers_rti_Timer_Object__table__V                 
0081ea7c  ti_sysbios_timers_rti_Timer_continueOnSuspend__C             
007ef440  ti_sysbios_timers_rti_Timer_getFreq__E                       
00802c00  ti_sysbios_timers_rti_Timer_getMaxTicks__E                   
007f8a80  ti_sysbios_timers_rti_Timer_initDevice__I                    
0081e9dc  ti_sysbios_timers_rti_Timer_numTimerDevices__C               
00801f20  ti_sysbios_timers_rti_Timer_periodicStub__E                  
007f9b20  ti_sysbios_timers_rti_Timer_setPeriodMicroSecs__E            
007ffae0  ti_sysbios_timers_rti_Timer_setPeriod__E                     
0081e9e0  ti_sysbios_timers_rti_Timer_startupNeeded__C                 
007f6060  ti_sysbios_timers_rti_Timer_startup__E                       
007ffb60  ti_sysbios_timers_rti_Timer_stop__E                          
0081fb28  ti_sysbios_utils_Load_Module_State_0_runningTask__A          
0081f990  ti_sysbios_utils_Load_Module_State_0_taskEnv__A              
0081fb30  ti_sysbios_utils_Load_Module_State_0_taskStartTime__A        
0081e9e4  ti_sysbios_utils_Load_Module_State_taskList__O               
0081e9e8  ti_sysbios_utils_Load_Module__diagsEnabled__C                
0081e9ec  ti_sysbios_utils_Load_Module__diagsIncluded__C               
0081e9f0  ti_sysbios_utils_Load_Module__diagsMask__C                   
0081ea7e  ti_sysbios_utils_Load_Module__id__C                          
0081f118  ti_sysbios_utils_Load_Module__state__V                       
007f8bc0  ti_sysbios_utils_Load_addTask__E                             
0081ea80  ti_sysbios_utils_Load_autoAddTasks__C                        
007f1ea0  ti_sysbios_utils_Load_idleFxn__E                             
0081e9f4  ti_sysbios_utils_Load_postUpdate__C                          
007f6980  ti_sysbios_utils_Load_startup__E                             
007f9c40  ti_sysbios_utils_Load_taskCreateHook__E                      
007f9d60  ti_sysbios_utils_Load_taskDeleteHook__E                      
00802c20  ti_sysbios_utils_Load_taskRegHook__E                         
007fcca0  ti_sysbios_utils_Load_taskSwitchHook__E                      
007fba80  ti_sysbios_utils_Load_updateCurrentThreadTime__E             
0081ea82  ti_sysbios_utils_Load_updateInIdle__C                        
007f8d00  ti_sysbios_utils_Load_updateLoads__E                         
007ea240  ti_sysbios_utils_Load_updateThreadContexts__E                
007f8d00  ti_sysbios_utils_Load_update__E                              
0081e9f8  ti_sysbios_utils_Load_windowInMs__C                          
007ffbe0  unlink                                                       
00801f60  wcslen                                                       
00801260  write                                                        
0081e9fc  xdc_runtime_Assert_E_assertFailed__C                         
007fce20  xdc_runtime_Assert_raise__I                                  
0081ea00  xdc_runtime_Core_A_initializedParams__C                      
0081ea04  xdc_runtime_Core_Module__diagsEnabled__C                     
0081ea08  xdc_runtime_Core_Module__diagsIncluded__C                    
0081ea0c  xdc_runtime_Core_Module__diagsMask__C                        
0081ea84  xdc_runtime_Core_Module__id__C                               
007fe240  xdc_runtime_Core_assignLabel__I                              
007fe2e0  xdc_runtime_Core_assignParams__I                             
007f20a0  xdc_runtime_Core_constructObject__I                          
007ed120  xdc_runtime_Core_createObject__I                             
007f7a20  xdc_runtime_Core_deleteObject__I                             
0081ea10  xdc_runtime_Error_E_memory__C                                
0081f930  xdc_runtime_Error_IgnoreBlock                                
0081fb1c  xdc_runtime_Error_Module__state__V                           
00801fa0  xdc_runtime_Error_init__E                                    
0081ea86  xdc_runtime_Error_maxDepth__C                                
007f0560  xdc_runtime_Error_policyDefault__E                           
0081ea14  xdc_runtime_Error_policyFxn__C                               
0081ea18  xdc_runtime_Error_policy__C                                  
007faa80  xdc_runtime_Error_print__E                                   
0081ea1c  xdc_runtime_Error_raiseHook__C                               
0081ea20  xdc_runtime_IGateProvider_Interface__BASE__C                 
0081ea24  xdc_runtime_IHeap_Interface__BASE__C                         
0081ea28  xdc_runtime_IModule_Interface__BASE__C                       
00801c60  xdc_runtime_Main_Module_GateProxy_Handle__label__S           
00802920  xdc_runtime_Main_Module_GateProxy_query__E                   
0081ea88  xdc_runtime_Main_Module__id__C                               
00801da0  xdc_runtime_Memory_HeapProxy_Handle__label__S                
00802c40  xdc_runtime_Memory_HeapProxy_alloc__E                        
00802c60  xdc_runtime_Memory_HeapProxy_free__E                         
00802c80  xdc_runtime_Memory_HeapProxy_getStats__E                     
0081ea8a  xdc_runtime_Memory_Module__id__C                             
0081fb14  xdc_runtime_Memory_Module__state__V                          
007f8e40  xdc_runtime_Memory_alloc__E                                  
0081ea2c  xdc_runtime_Memory_defaultHeapInstance__C                    
00802ca0  xdc_runtime_Memory_free__E                                   
00802cc0  xdc_runtime_Memory_getStats__E                               
0081faf8  xdc_runtime_Registry_Module__state__V                        
0081fb00  xdc_runtime_Startup_Module__state__V                         
00000001  xdc_runtime_Startup__EXECFXN__C                              
00000001  xdc_runtime_Startup__RESETFXN__C                             
0081ea30  xdc_runtime_Startup_execImpl__C                              
007fab80  xdc_runtime_Startup_exec__E                                  
00802ce0  xdc_runtime_Startup_exec__I                                  
0081e8b0  xdc_runtime_Startup_firstFxns__A                             
0081e8b8  xdc_runtime_Startup_firstFxns__C                             
0081e8c0  xdc_runtime_Startup_lastFxns__C                              
0081ea34  xdc_runtime_Startup_maxPasses__C                             
00802d00  xdc_runtime_Startup_reset__I                                 
00802d20  xdc_runtime_Startup_rtsDone__E                               
0081e818  xdc_runtime_Startup_sfxnRts__A                               
0081ea38  xdc_runtime_Startup_sfxnRts__C                               
0081e4d8  xdc_runtime_Startup_sfxnTab__A                               
0081ea3c  xdc_runtime_Startup_sfxnTab__C                               
007efbe0  xdc_runtime_Startup_startMods__I                             
008012c0  xdc_runtime_SysStd_abort__E                                  
00802d40  xdc_runtime_SysStd_exit__E                                   
00802d60  xdc_runtime_SysStd_putch__E                                  
00802d80  xdc_runtime_SysStd_ready__E                                  
00801c60  xdc_runtime_System_Module_GateProxy_Handle__label__S         
00802da0  xdc_runtime_System_Module_GateProxy_enter__E                 
00802dc0  xdc_runtime_System_Module_GateProxy_leave__E                 
00802920  xdc_runtime_System_Module_GateProxy_query__E                 
0081f950  xdc_runtime_System_Module_State_0_atexitHandlers__A          
0081ea40  xdc_runtime_System_Module__gateObj__C                        
0081fb08  xdc_runtime_System_Module__state__V                          
00802de0  xdc_runtime_System_Module_startup__E                         
008012c0  xdc_runtime_System_SupportProxy_abort__E                     
00802d40  xdc_runtime_System_SupportProxy_exit__E                      
00802d60  xdc_runtime_System_SupportProxy_putch__E                     
00802d80  xdc_runtime_System_SupportProxy_ready__E                     
0081ea44  xdc_runtime_System_abortFxn__C                               
008025e0  xdc_runtime_System_abortStd__E                               
00801fe0  xdc_runtime_System_aprintf__E                                
007ffc60  xdc_runtime_System_aprintf_va__E                             
007ffc60  xdc_runtime_System_aprintf_va__F                             
007fe380  xdc_runtime_System_atexit__E                                 
007ffc60  xdc_runtime_System_avprintf__E                               
007e0e00  xdc_runtime_System_doPrint__I                                
0081ea48  xdc_runtime_System_exitFxn__C                                
007fb700  xdc_runtime_System_exitStd__E                                
007fe420  xdc_runtime_System_exit__E                                   
0081ea4c  xdc_runtime_System_extendFxn__C                              
0081ea50  xdc_runtime_System_maxAtexitHandlers__C                      
007f07a0  xdc_runtime_System_printfExtend__I                           
00802020  xdc_runtime_System_printf__E                                 
007ffce0  xdc_runtime_System_printf_va__E                              
007ffce0  xdc_runtime_System_printf_va__F                              
007ffce0  xdc_runtime_System_vprintf__E                                
0081ea8c  xdc_runtime_Text_charCnt__C                                  
0081b750  xdc_runtime_Text_charTab__A                                  
0081ea54  xdc_runtime_Text_charTab__C                                  
0081ea8e  xdc_runtime_Text_isLoaded__C                                 
0081ea58  xdc_runtime_Text_nameEmpty__C                                
0081ea5c  xdc_runtime_Text_nameStatic__C                               
0081ea60  xdc_runtime_Text_nameUnknown__C                              
0081e150  xdc_runtime_Text_nodeTab__A                                  
0081ea64  xdc_runtime_Text_nodeTab__C                                  
007fe4c0  xdc_runtime_Text_printVisFxn__I                              
007f8f80  xdc_runtime_Text_putLab__E                                   
007f90c0  xdc_runtime_Text_putMod__E                                   
007f47e0  xdc_runtime_Text_putSite__E                                  
0081ea90  xdc_runtime_Text_registryModsLastId__C                       
0081ea92  xdc_runtime_Text_unnamedModsLastId__C                        
007f9200  xdc_runtime_Text_visitRope2__I                               
0081ea68  xdc_runtime_Text_visitRopeFxn__C                             
00802e00  xdc_runtime_Text_visitRope__I                                
007fe560  xdc_runtime_Text_xprintf__I                                  
008028a0  xdc_runtime_Timestamp_SupportProxy_get32__E                  
00802700  xdc_runtime_Timestamp_SupportProxy_getFreq__E                
008028a0  xdc_runtime_Timestamp_get32__E                               
00802700  xdc_runtime_Timestamp_getFreq__E                             


GLOBAL SYMBOLS: SORTED BY Symbol Address 

address   name                                                         
-------   ----                                                         
00000000  __ASM__                                                      
00000000  ti_sysbios_family_c64p_Cache_l2Size                          
00000001  xdc_runtime_Startup__EXECFXN__C                              
00000001  xdc_runtime_Startup__RESETFXN__C                             
00000098  __ISA__                                                      
000000b0  __PLAT__                                                     
000000d0  __TARG__                                                     
000000f8  __TRDR__                                                     
00000800  __TI_STACK_SIZE                                              
00004000  ti_sysbios_family_c64p_Cache_l1dSize                         
00004000  ti_sysbios_family_c64p_Cache_l1pSize                         
007e0000  ti_sysbios_family_c64p_Hwi0                                  
007e0000  ti_sysbios_family_c64p_Hwi_int0                              
007e0020  ti_sysbios_family_c64p_Hwi_int1                              
007e0040  ti_sysbios_family_c64p_Hwi_int2                              
007e0060  ti_sysbios_family_c64p_Hwi_int3                              
007e0080  ti_sysbios_family_c64p_Hwi_int4                              
007e00a0  ti_sysbios_family_c64p_Hwi_int5                              
007e00c0  ti_sysbios_family_c64p_Hwi_int6                              
007e00e0  ti_sysbios_family_c64p_Hwi_int7                              
007e0100  ti_sysbios_family_c64p_Hwi_int8                              
007e0120  ti_sysbios_family_c64p_Hwi_int9                              
007e0140  ti_sysbios_family_c64p_Hwi_int10                             
007e0160  ti_sysbios_family_c64p_Hwi_int11                             
007e0180  ti_sysbios_family_c64p_Hwi_int12                             
007e01a0  ti_sysbios_family_c64p_Hwi_int13                             
007e01c0  ti_sysbios_family_c64p_Hwi_int14                             
007e01e0  ti_sysbios_family_c64p_Hwi_int15                             
007e0200  ObjectDetection_Test_task                                    
007e0e00  xdc_runtime_System_doPrint__I                                
007e19a0  DPU_DopplerProcHWA_config                                    
007e24e0  DPU_RangeProcHWA_process                                     
007e2ec0  HWA_configParamSet                                           
007e4000  DPU_RangeProcHWA_config                                      
007e47e0  ti_sysbios_family_c64p_Exception_handler__I                  
007e64e0  ti_sysbios_knl_Semaphore_pend__E                             
007e6b80  ti_sysbios_heaps_HeapMem_allocUnprotected__E                 
007e7200  ti_sysbios_heaps_HeapMem_freeUnprotected__E                  
007e7860  DPU_AoAProcHWA_process                                       
007e7e40  ti_sysbios_knl_Task_Instance_finalize__E                     
007e83c0  ObjectDetection_Test_setProfile                              
007e9220  ti_sysbios_knl_Task_Instance_init__E                         
007e9660  Mailbox_open                                                 
007e9e60  ti_sysbios_knl_Task_sleep__E                                 
007ea240  ti_sysbios_utils_Load_updateThreadContexts__E                
007ea9e0  DPU_AoAProcHWA_config                                        
007eada0  HWA_configCommon                                             
007eb500  ObjectDetection_Test_CompareToRef                            
007ebee0  DPU_StaticClutterProc_process                                
007ec220  cos                                                          
007ec220  cosl                                                         
007ec540  fputs                                                        
007ecb60  sin                                                          
007ecb60  sinl                                                         
007ece40  ti_sysbios_heaps_HeapMem_Instance_init__E                    
007ed120  xdc_runtime_Core_createObject__I                             
007ed400  AoAProcHWA_XYZestimation                                     
007ed980  EDMA_configChannel                                           
007edc40  EDMA_configErrorMonitoring                                   
007edf00  ti_sysbios_knl_Task_postInit__I                              
007ee1c0  ti_sysbios_timers_rti_Timer_Module_startup__E                
007ee480  AoAProcHWA_PrepareRangeAzimuthHeatmap                        
007ee720  DPU_CFARCAProcHWA_process                                    
007ee9c0  EDMA_open                                                    
007eec60  HWA_open                                                     
007eef00  __c6xabi_divf                                                
007ef1a0  ti_sysbios_family_c64p_EventCombiner_dispatch__E             
007ef440  ti_sysbios_timers_rti_Timer_getFreq__E                       
007ef960  ti_sysbios_family_c64p_Cache_Module_startup__E               
007efbe0  xdc_runtime_Startup_startMods__I                             
007f00c0  ti_sysbios_gates_GateMutex_enter__E                          
007f0320  ti_sysbios_family_c64p_Exception_internalHandler__I          
007f0560  xdc_runtime_Error_policyDefault__E                           
007f07a0  xdc_runtime_System_printfExtend__I                           
007f0c00  Mailbox_write                                                
007f1040  open                                                         
007f1260  ti_sysbios_family_c64p_EventCombiner_dispatchPlug__E         
007f1480  ti_sysbios_family_c64p_EventCombiner_enableEvent__E          
007f16a0  DPU_AoAProcHWA_init                                          
007f18a0  ti_sysbios_family_c64p_Hwi_dispatchAlways                    
007f1aa0  mathUtils_genWindow                                          
007f1ca0  ti_sysbios_family_c64p_EventCombiner_disableEvent__E         
007f1ea0  ti_sysbios_utils_Load_idleFxn__E                             
007f20a0  xdc_runtime_Core_constructObject__I                          
007f2480  EDMA_init                                                    
007f2660  log                                                          
007f2660  logl                                                         
007f2840  ti_sysbios_knl_Semaphore_post__E                             
007f2a20  DPEDMA_configSyncAB                                          
007f2be0  DPEDMA_configSyncA_singleFrame                               
007f2da0  DPU_RangeProcHWA_control                                     
007f2f60  DPU_StaticClutterProc_configEdma                             
007f3120  HWAutil_configCFAR                                           
007f32e0  Mailbox_read                                                 
007f34a0  ObjectDetection_Test_configDPC                               
007f3660  SOC_deregisterSysIntListener                                 
007f3820  __c6xabi_divul                                               
007f39e0  atan2                                                        
007f39e0  atan2l                                                       
007f3ba0  fputc                                                        
007f3ba0  putc                                                         
007f3d60  frexp                                                        
007f3d60  frexpl                                                       
007f3f20  ldexp                                                        
007f3f20  ldexpl                                                       
007f3f20  scalbn                                                       
007f3f20  scalbnl                                                      
007f42a0  setvbuf                                                      
007f4460  ti_sysbios_knl_Swi_restoreHwi__E                             
007f4620  ti_sysbios_knl_Task_checkStacks__E                           
007f47e0  xdc_runtime_Text_putSite__E                                  
007f49a0  CFARHWA_cfarRange_AND_cfarDoppler                            
007f4b40  DPU_CFARCAProcHWA_config                                     
007f4ce0  DPU_DopplerProcHWA_init                                      
007f4e80  DPU_DopplerProcHWA_process                                   
007f5020  DPU_RangeProcHWA_init                                        
007f5360  HOSTrename                                                   
007f5500  ObjectDetection_Test_edmaOpen                                
007f56a0  ObjectDetection_Test_printAndCheckResults                    
007f5840  asin                                                         
007f5840  asinl                                                        
007f59e0  ti_sysbios_family_c64p_Cache_getL2InitSize__I                
007f5b80  ti_sysbios_heaps_HeapBuf_Module_startup__E                   
007f5d20  ti_sysbios_knl_Swi_runLoop__I                                
007f5ec0  ti_sysbios_knl_Task_exit__E                                  
007f6060  ti_sysbios_knl_Clock_TimerProxy_startup__E                   
007f6060  ti_sysbios_timers_rti_Timer_startup__E                       
007f6200  DPU_AoAProcHWA_control                                       
007f6380  HWA_enableParamSetInterrupt                                  
007f6500  ObjectDetection_Test_DPCInit                                 
007f6680  ti_sysbios_family_c64p_Exception_dispatch__E                 
007f6800  ti_sysbios_knl_Task_schedule__I                              
007f6980  ti_sysbios_utils_Load_startup__E                             
007f6f20  Mailbox_close                                                
007f71e0  SOC_registerSysIntListener                                   
007f7340  __TI_buff_read                                               
007f74a0  sqrt                                                         
007f74a0  sqrtl                                                        
007f7600  ti_sysbios_family_c64p_Cache_getL1DInitSize__I               
007f7760  ti_sysbios_family_c64p_Cache_getL1PInitSize__I               
007f78c0  ti_sysbios_family_c64p_Hwi_Module_startup__E                 
007f7a20  xdc_runtime_Core_deleteObject__I                             
007f7b80  AoAProcHWA_ConvertFov                                        
007f7cc0  DPEDMAHWA_configTwoHotSignature                              
007f7e00  DPU_CFARCAProcHWA_control                                    
007f7f40  EDMA3Init                                                    
007f81c0  EDMA_startTransfer                                           
007f8300  HWA_configRam                                                
007f8440  ObjectDetection_Test_convertCoordinates                      
007f86c0  ti_sysbios_knl_Semaphore_Instance_init__E                    
007f8800  ti_sysbios_knl_Task_Module_startup__E                        
007f8940  ti_sysbios_knl_Task_startCore__E                             
007f8a80  ti_sysbios_timers_rti_Timer_initDevice__I                    
007f8bc0  ti_sysbios_utils_Load_addTask__E                             
007f8d00  ti_sysbios_utils_Load_updateLoads__E                         
007f8d00  ti_sysbios_utils_Load_update__E                              
007f8e40  xdc_runtime_Memory_alloc__E                                  
007f8f80  xdc_runtime_Text_putLab__E                                   
007f90c0  xdc_runtime_Text_putMod__E                                   
007f9200  xdc_runtime_Text_visitRope2__I                               
007f9460  DPEDMAHWA_configOneHotSignature                              
007f9580  EDMA_configParamSet                                          
007f96a0  SOC_init                                                     
007f97c0  _auto_init_elf                                               
007f98e0  getdevice                                                    
007f9a00  ti_sysbios_knl_Clock_workFunc__E                             
007f9b20  ti_sysbios_timers_rti_Timer_setPeriodMicroSecs__E            
007f9c40  ti_sysbios_utils_Load_taskCreateHook__E                      
007f9d60  ti_sysbios_utils_Load_taskDeleteHook__E                      
007f9e80  AoAProcHWA_cfgAndTrigger_EDMA_2DFFT                          
007fa080  DPU_CFARCAProcHWA_init                                       
007fa180  DPU_StaticClutterProc_config                                 
007fa280  HWA_disableParamSetInterrupt                                 
007fa380  Mailbox_readFlush                                            
007fa580  SOC_deviceInit                                               
007fa680  SOC_translateAddress                                         
007fa780  atoi                                                         
007fa880  fflush                                                       
007fa980  fseek                                                        
007faa80  xdc_runtime_Error_print__E                                   
007fab80  xdc_runtime_Startup_exec__E                                  
007fad60  EDMA_close                                                   
007fae40  EDMA_isTransferComplete                                      
007fb000  HOSTlseek                                                    
007fb0e0  HOSTopen                                                     
007fb1c0  HOSTwrite                                                    
007fb380  __TI_ltoa                                                    
007fb460  __TI_wrt_ok                                                  
007fb540  __c6xabi_divi                                                
007fb540  __divi                                                       
007fb620  close                                                        
007fb700  exit                                                         
007fb700  xdc_runtime_System_exitStd__E                                
007fb7e0  main                                                         
007fb8c0  memset                                                       
007fb9a0  printf                                                       
007fba80  ti_sysbios_utils_Load_updateCurrentThreadTime__E             
007fbb60  CFARCAHWA_config_EDMA                                        
007fbc20  CFARHWA_prepareHwaRunTime                                    
007fbe60  EDMA_startDmaTransfer                                        
007fbf20  HOSTread                                                     
007fbfe0  HOSTunlink                                                   
007fc0a0  HWA_close                                                    
007fc160  HWA_getDMAChanIndex                                          
007fc220  HWA_getDMAconfig                                             
007fc3a0  HWA_getHWAMemInfo                                            
007fc520  _DPC_Objdet_Assert                                           
007fc5e0  __c6xabi_divu                                                
007fc5e0  __divu                                                       
007fc6a0  modf                                                         
007fc6a0  modfl                                                        
007fc820  ti_sysbios_family_c64p_Hwi_dispatchCore__I                   
007fc8e0  ti_sysbios_heaps_HeapMem_alloc__E                            
007fc9a0  ti_sysbios_heaps_HeapMem_getStats__E                         
007fca60  ti_sysbios_knl_Swi_schedule__I                               
007fcb20  ti_sysbios_knl_Task_allBlockedFunction__I                    
007fcbe0  ti_sysbios_knl_Task_create                                   
007fcca0  ti_sysbios_utils_Load_taskSwitchHook__E                      
007fcd60  __TI_tls_init                                                
007fce20  xdc_runtime_Assert_raise__I                                  
007fcee0  CFARHWA_fovConvertDoppler                                    
007fcf80  CFARHWA_saveConfiguration                                    
007fd0c0  DPEDMA_setup_shadow_link                                     
007fd160  EDMA3EnableChInShadowReg                                     
007fd200  EDMA_disableChannel                                          
007fd2a0  EDMA_enableChannel                                           
007fd340  HOSTclose                                                    
007fd480  HWA_disableDoneInterrupt                                     
007fd520  HWA_enable                                                   
007fd5c0  HWA_enableDoneInterrupt                                      
007fd660  HWA_readCFARPeakCountReg                                     
007fd7a0  ObjectDetection_Test_edmaInit                                
007fd840  SOC_SystemISR                                                
007fd8e0  __TI_doflush                                                 
007fd980  __TI_rd_ok                                                   
007fda20  __c6xabi_fixfu                                               
007fdac0  __c6xabi_nround                                              
007fdac0  __c6xabi_roundl                                              
007fdb60  __c6xabi_remu                                                
007fdb60  __remu                                                       
007fdc00  _c_int00                                                     
007fdca0  finddevice                                                   
007fdd40  memcpy                                                       
007fdde0  mmwavelib_vecsum                                             
007fde80  sqrtsp                                                       
007fdf20  ti_sysbios_family_c64p_Exception_Module_startup__E           
007fdfc0  ti_sysbios_family_c64p_Hwi_dispatchC__I                      
007fe060  ti_sysbios_family_c64p_Hwi_getStackInfo__E                   
007fe060  ti_sysbios_hal_Hwi_HwiProxy_getStackInfo__E                  
007fe060  ti_sysbios_hal_Hwi_getStackInfo__E                           
007fe100  ti_sysbios_hal_Hwi_checkStack                                
007fe1a0  ti_sysbios_knl_Semaphore_pendTimeout__I                      
007fe240  xdc_runtime_Core_assignLabel__I                              
007fe2e0  xdc_runtime_Core_assignParams__I                             
007fe380  xdc_runtime_System_atexit__E                                 
007fe420  xdc_runtime_System_exit__E                                   
007fe4c0  xdc_runtime_Text_printVisFxn__I                              
007fe560  xdc_runtime_Text_xprintf__I                                  
007fe680  CFARHWA_convHwaCfarDetListToDetMask                          
007fe700  CFARHWA_fovConvertRange                                      
007fe800  DPU_RangeProcHWA_deinit                                      
007fe880  DPU_StaticClutterProc_init                                   
007fe900  DPU_StaticClutterProc_waitInData                             
007fe980  DPU_StaticClutterProc_waitOutData                            
007fea00  EDMA3MapChToEvtQ                                             
007feb00  EDMA_linkParamSets                                           
007feb80  HWA_reset                                                    
007fec00  HWA_setDMA2ACCManualTrig                                     
007fec80  ObjectDetection_Test_DPCDeinit                               
007fed20  ObjectDetection_Test_hwaOpen                                 
007feda0  ObjectDetection_Test_initComponents                          
007fee20  ObjectDetection_Test_startDPC                                
007feec0  ObjectDetection_Test_stopDPC                                 
007fef60  SemaphoreP_create                                            
007fefe0  __TI_readmsg                                                 
007ff060  __c6xabi_fixdu                                               
007ff0e0  __c6xabi_llshl                                               
007ff1e0  ti_sysbios_family_c62_TaskSupport_swap__E                    
007ff1e0  ti_sysbios_knl_Task_SupportProxy_swap__E                     
007ff2e0  snprintf                                                     
007ff360  ti_sysbios_BIOS_atExitFunc__I                                
007ff3e0  ti_sysbios_BIOS_registerRTSLock__I                           
007ff460  ti_sysbios_gates_GateHwi_Object__create__S                   
007ff4e0  ti_sysbios_gates_GateMutex_Object__create__S                 
007ff560  ti_sysbios_heaps_HeapMem_Object__create__S                   
007ff5e0  ti_sysbios_heaps_HeapMem_init__I                             
007ff660  ti_sysbios_knl_Clock_doTick__I                               
007ff6e0  ti_sysbios_knl_Idle_run__E                                   
007ff760  ti_sysbios_knl_Semaphore_create                              
007ff7e0  ti_sysbios_knl_Swi_post__E                                   
007ff860  ti_sysbios_knl_Swi_startup__E                                
007ff8e0  ti_sysbios_knl_Task_processVitalTaskFlag__I                  
007ff960  ti_sysbios_knl_Task_restore__E                               
007ff9e0  ti_sysbios_knl_Task_sleepTimeout__I                          
007ffa60  malloc                                                       
007ffae0  ti_sysbios_timers_rti_Timer_setPeriod__E                     
007ffb60  ti_sysbios_timers_rti_Timer_stop__E                          
007ffbe0  remove                                                       
007ffbe0  unlink                                                       
007ffc60  xdc_runtime_System_aprintf_va__E                             
007ffc60  xdc_runtime_System_aprintf_va__F                             
007ffc60  xdc_runtime_System_avprintf__E                               
007ffce0  xdc_runtime_System_printf_va__E                              
007ffce0  xdc_runtime_System_printf_va__F                              
007ffce0  xdc_runtime_System_vprintf__E                                
007ffd60  AOAHWA_waitEdma                                              
007ffdc0  CFARHWA_triggerCFAR                                          
00800000  DPU_AoAProcHWA_deinit                                        
00800060  DPU_CFARCAProcHWA_deinit                                     
008000c0  DPU_DopplerProcHWA_deinit                                    
00800120  DPU_StaticClutterProc_deinit                                 
00800180  EDMA3ClrEvt                                                  
008001e0  EDMA3ClrIntr                                                 
00800240  EDMA3ClrMissEvt                                              
008002a0  EDMA3DisableEvtIntr                                          
00800300  EDMA3EnableDmaEvt                                            
00800360  EDMA3EnableEvtIntr                                           
008003c0  EDMA3SetEvt                                                  
008004e0  EDMA_setDestinationAddress                                   
00800540  EDMA_setSourceAddress                                        
00800660  Mailbox_Config_init                                          
008006c0  ObjectDetection_Test_EDMA_errorCallbackFxn                   
00800720  ObjectDetection_Test_EDMA_transferControllerErrorCallbackFxn 
00800780  ObjectDetection_Test_hwaClose                                
008007e0  SOC_enableHWA                                                
00800840  SOC_setDSSLinkState                                          
008008a0  SOC_unhaltBSS                                                
00800900  __TI_writemsg                                                
00800958  C$$IO$$                                                      
00800960  __c6xabi_llshru                                              
008009c0  ti_sysbios_family_c64p_Hwi_switchAndDispatch__I              
00800a20  ti_sysbios_family_xxx_Hwi_switchAndRunFunc                   
00800a80  lseek                                                        
00800ae0  memccpy                                                      
00800b40  mmwavelib_vecsubc                                            
00800ba0  read                                                         
00800c00  sprintf                                                      
00800c60  ti_sysbios_BIOS_errorRaiseHook__I                            
00800cc0  ti_sysbios_BIOS_removeRTSLock__I                             
00800d20  ti_sysbios_BIOS_startFunc__I                                 
00800d80  ti_sysbios_family_c62_TaskSupport_start__E                   
00800d80  ti_sysbios_knl_Task_SupportProxy_start__E                    
00800de0  ti_sysbios_family_c64p_Cache_setMar__E                       
00800e40  ti_sysbios_family_c64p_EventCombiner_Module_startup__E       
00800ea0  ti_sysbios_family_c64p_EventCombiner_unused__E               
00800f00  ti_sysbios_gates_GateMutex_Object__delete__S                 
00800f60  ti_sysbios_hal_Hwi_initStack                                 
00800fc0  ti_sysbios_heaps_HeapMem_free__E                             
00801020  ti_sysbios_knl_Clock_Module_startup__E                       
00801080  ti_sysbios_knl_Queue_construct                               
008010e0  ti_sysbios_knl_Semaphore_Object__delete__S                   
00801140  ti_sysbios_knl_Semaphore_construct                           
008011a0  ti_sysbios_knl_Swi_Module_startup__E                         
00801200  ti_sysbios_knl_Task_enter__I                                 
00801260  write                                                        
008012c0  xdc_runtime_SysStd_abort__E                                  
008012c0  xdc_runtime_System_SupportProxy_abort__E                     
00801560  EDMA3DisableDmaEvt                                           
008015a0  EDMA3MapQdmaChToPaRAM                                        
008015e0  EDMA3SetPaRAM                                                
00801620  EDMA3SetQdmaTrigWord                                         
00801660  HwiP_create                                                  
008016a0  HwiP_delete                                                  
008017a0  ObjectDetection_Test_edmaClose                               
008017e0  SOC_getInAddr_LUTType                                        
00801820  SOC_getOutAddr_LUTType                                       
00801860  SOC_isMSSOperational                                         
008018a0  __TI_frcmpyd_div                                             
008018e0  __c6xabi_isinf                                               
00801920  __c6xabi_strasgi_64plus                                      
00801920  __strasgi_64plus                                             
00801960  _args_main                                                   
00801a20  ti_sysbios_family_c62_TaskSupport_buildTaskStack             
00801a60  free                                                         
00801aa0  mathUtils_pow2roundup                                        
00801b20  ti_sysbios_BIOS_exitFunc__I                                  
00801b60  ti_sysbios_BIOS_rtsLock__I                                   
00801ba0  ti_sysbios_BIOS_rtsUnlock__I                                 
00801be0  ti_sysbios_family_c64p_Hwi_disableInterrupt__E               
00801be0  ti_sysbios_hal_Hwi_HwiProxy_disableInterrupt__E              
00801be0  ti_sysbios_hal_Hwi_disableInterrupt__E                       
00801c20  ti_sysbios_family_c64p_Hwi_enableInterrupt__E                
00801c20  ti_sysbios_hal_Hwi_HwiProxy_enableInterrupt__E               
00801c20  ti_sysbios_hal_Hwi_enableInterrupt__E                        
00801c60  ti_sysbios_gates_GateHwi_Handle__label__S                    
00801c60  xdc_runtime_Main_Module_GateProxy_Handle__label__S           
00801c60  xdc_runtime_System_Module_GateProxy_Handle__label__S         
00801ca0  ti_sysbios_gates_GateHwi_Object__delete__S                   
00801ce0  ti_sysbios_BIOS_RtsGateProxy_Handle__label__S                
00801ce0  ti_sysbios_gates_GateMutex_Handle__label__S                  
00801ce0  ti_sysbios_heaps_HeapMem_Module_GateProxy_Handle__label__S   
00801d20  ti_sysbios_gates_GateMutex_Instance_init__E                  
00801d60  ti_sysbios_gates_GateMutex_leave__E                          
00801da0  ti_sysbios_heaps_HeapMem_Handle__label__S                    
00801da0  xdc_runtime_Memory_HeapProxy_Handle__label__S                
00801de0  ti_sysbios_heaps_HeapMem_Object__delete__S                   
00801e20  ti_sysbios_heaps_HeapMem_Object__get__S                      
00801e60  ti_sysbios_knl_Semaphore_destruct                            
00801ea0  ti_sysbios_knl_Swi_Object__get__S                            
00801ee0  ti_sysbios_knl_Task_Object__get__S                           
00801f20  ti_sysbios_timers_rti_Timer_periodicStub__E                  
00801f60  wcslen                                                       
00801fa0  xdc_runtime_Error_init__E                                    
00801fe0  xdc_runtime_System_aprintf__E                                
00802020  xdc_runtime_System_printf__E                                 
00802100  EDMA3ChannelToParamMap                                       
00802120  EDMA3ClrCCErr                                                
00802140  EDMA3DisableQdmaEvt                                          
00802160  EDMA3EnableQdmaEvt                                           
00802180  EDMA3ErrIntrHighStatusGet                                    
008021a0  EDMA3GetCCErrStatus                                          
008021c0  EDMA3GetErrIntrStatus                                        
008021e0  EDMA3GetIntrStatus                                           
00802200  EDMA3IntrStatusHighGet                                       
00802220  EDMA3QdmaClrMissEvt                                          
00802240  EDMA3QdmaGetErrIntrStatus                                    
00802260  EDMA_getNumInstances                                         
00802280  EDMAsetRegion                                                
008022a0  HWA_init                                                     
008022c0  HwiP_Params_init                                             
008022e0  HwiP_disable                                                 
00802300  HwiP_disableInterrupt                                        
00802320  HwiP_enableInterrupt                                         
00802340  HwiP_restore                                                 
00802360  MemoryP_ctrlAlloc                                            
00802380  MemoryP_ctrlFree                                             
008023a0  MemoryP_getStats                                             
008023c0  SemaphoreP_Params_init                                       
008023e0  SemaphoreP_delete                                            
00802400  SemaphoreP_pend                                              
00802420  SemaphoreP_post                                              
00802420  SemaphoreP_postFromClock                                     
00802420  SemaphoreP_postFromISR                                       
00802440  _DebugP_assert                                               
00802460  __c6xabi_errno_addr                                          
00802480  __c6xabi_trunc                                               
00802480  __c6xabi_truncl                                              
008024a0  __c6xabi_pop_rts                                             
008024a0  __pop_rts                                                    
008024c0  __c6xabi_push_rts                                            
008024c0  __push_rts                                                   
008024e0  _nop                                                         
00802560  _register_lock                                               
00802580  _register_unlock                                             
008025a0  _signbit                                                     
008025c0  ti_sysbios_family_c62_TaskSupport_glue                       
008025e0  C$$EXIT                                                      
008025e0  abort                                                        
008025e0  xdc_runtime_System_abortStd__E                               
00802600  llabs                                                        
00802620  mathUtils_ceilLog2                                           
00802640  mathUtils_floorLog2                                          
00802660  putchar                                                      
008026a0  ti_sysbios_BIOS_RtsGateProxy_enter__E                        
008026c0  ti_sysbios_BIOS_RtsGateProxy_leave__E                        
008026e0  ti_sysbios_BIOS_exit__E                                      
00802700  ti_sysbios_BIOS_getCpuFreq__E                                
00802700  ti_sysbios_family_c64p_TimestampProvider_getFreq__E          
00802700  xdc_runtime_Timestamp_SupportProxy_getFreq__E                
00802700  xdc_runtime_Timestamp_getFreq__E                             
00802720  ti_sysbios_BIOS_linkedWithIncorrectBootLibrary__E            
00802740  ti_sysbios_BIOS_nullFunc__I                                  
00802760  ti_sysbios_BIOS_setThreadType__E                             
00802780  ti_sysbios_BIOS_start__E                                     
008027a0  ti_sysbios_family_c62_TaskSupport_Module__startupDone__S     
008027a0  ti_sysbios_knl_Task_SupportProxy_Module__startupDone__S      
008027c0  ti_sysbios_family_c62_TaskSupport_checkStack__E              
008027c0  ti_sysbios_knl_Task_SupportProxy_checkStack__E               
008027e0  ti_sysbios_family_c62_TaskSupport_getStackAlignment__E       
008027e0  ti_sysbios_knl_Task_SupportProxy_getStackAlignment__E        
00802800  ti_sysbios_family_c64p_Hwi_Module__startupDone__F            
00802800  ti_sysbios_family_c64p_Hwi_Module__startupDone__S            
00802800  ti_sysbios_hal_Hwi_HwiProxy_Module__startupDone__S           
00802820  ti_sysbios_family_c64p_Hwi_clearInterrupt__E                 
00802820  ti_sysbios_hal_Hwi_HwiProxy_clearInterrupt__E                
00802820  ti_sysbios_hal_Hwi_clearInterrupt__E                         
00802840  ti_sysbios_family_c64p_Hwi_startup__E                        
00802840  ti_sysbios_hal_Hwi_HwiProxy_startup__E                       
00802840  ti_sysbios_hal_Hwi_startup__E                                
00802860  ti_sysbios_family_c64p_Hwi_switchFromBootStack__E            
00802860  ti_sysbios_hal_Hwi_HwiProxy_switchFromBootStack__E           
00802860  ti_sysbios_hal_Hwi_switchFromBootStack__E                    
00802880  ti_sysbios_family_c64p_TimestampProvider_Module_startup__E   
008028a0  ti_sysbios_family_c64p_TimestampProvider_get32__E            
008028a0  xdc_runtime_Timestamp_SupportProxy_get32__E                  
008028a0  xdc_runtime_Timestamp_get32__E                               
008028c0  ti_sysbios_gates_GateHwi_Instance_init__E                    
008028e0  ti_sysbios_gates_GateHwi_enter__E                            
00802900  ti_sysbios_gates_GateHwi_leave__E                            
00802920  ti_sysbios_gates_GateHwi_query__E                            
00802920  xdc_runtime_Main_Module_GateProxy_query__E                   
00802920  xdc_runtime_System_Module_GateProxy_query__E                 
00802940  ti_sysbios_gates_GateMutex_Instance_finalize__E              
00802960  ti_sysbios_BIOS_RtsGateProxy_query__E                        
00802960  ti_sysbios_gates_GateMutex_query__E                          
00802960  ti_sysbios_heaps_HeapMem_Module_GateProxy_query__E           
00802980  ti_sysbios_hal_Hwi_Module_startup__E                         
008029a0  ti_sysbios_heaps_HeapBuf_Object__get__S                      
008029c0  ti_sysbios_heaps_HeapMem_Module_GateProxy_enter__E           
008029e0  ti_sysbios_heaps_HeapMem_Module_GateProxy_leave__E           
00802a00  ti_sysbios_heaps_HeapMem_isBlocking__E                       
00802a20  ti_sysbios_knl_Clock_TimerProxy_getMaxTicks__E               
00802a40  ti_sysbios_knl_Clock_logTick__E                              
00802a60  ti_sysbios_knl_Idle_loop__E                                  
00802a80  ti_sysbios_knl_Queue_Instance_init__E                        
00802aa0  ti_sysbios_knl_Queue_Object__get__S                          
00802ac0  ti_sysbios_knl_Queue_destruct                                
00802ae0  ti_sysbios_knl_Queue_empty__E                                
00802b00  ti_sysbios_knl_Semaphore_Instance_finalize__E                
00802b20  ti_sysbios_knl_Semaphore_Params__init__S                     
00802b40  ti_sysbios_knl_Semaphore_delete                              
00802b60  ti_sysbios_knl_Swi_disable__E                                
00802b80  ti_sysbios_knl_Task_Params__init__S                          
00802ba0  ti_sysbios_knl_Task_disable__E                               
00802bc0  ti_sysbios_knl_Task_startup__E                               
00802be0  ti_sysbios_knl_Clock_TimerProxy_Module__startupDone__S       
00802be0  ti_sysbios_timers_rti_Timer_Module__startupDone__F           
00802be0  ti_sysbios_timers_rti_Timer_Module__startupDone__S           
00802c00  ti_sysbios_timers_rti_Timer_getMaxTicks__E                   
00802c20  ti_sysbios_utils_Load_taskRegHook__E                         
00802c40  xdc_runtime_Memory_HeapProxy_alloc__E                        
00802c60  xdc_runtime_Memory_HeapProxy_free__E                         
00802c80  xdc_runtime_Memory_HeapProxy_getStats__E                     
00802ca0  xdc_runtime_Memory_free__E                                   
00802cc0  xdc_runtime_Memory_getStats__E                               
00802ce0  xdc_runtime_Startup_exec__I                                  
00802d00  xdc_runtime_Startup_reset__I                                 
00802d20  xdc_runtime_Startup_rtsDone__E                               
00802d40  xdc_runtime_SysStd_exit__E                                   
00802d40  xdc_runtime_System_SupportProxy_exit__E                      
00802d60  xdc_runtime_SysStd_putch__E                                  
00802d60  xdc_runtime_System_SupportProxy_putch__E                     
00802d80  xdc_runtime_SysStd_ready__E                                  
00802d80  xdc_runtime_System_SupportProxy_ready__E                     
00802da0  xdc_runtime_System_Module_GateProxy_enter__E                 
00802dc0  xdc_runtime_System_Module_GateProxy_leave__E                 
00802de0  xdc_runtime_System_Module_startup__E                         
00802e00  xdc_runtime_Text_visitRope__I                                
00802e20  gObjectDetection_Test_TCMramHeap                             
0080ce20  ti_sysbios_heaps_HeapMem_Instance_State_0_buf__A             
00814e20  gGenFrameDataObj                                             
0081a518  ti_sysbios_knl_Task_Instance_State_0_stack__A                
0081a918  gDataPathObj                                                 
0081aca0  __TI_tmpnams                                                 
0081ade0  edmaDbg                                                      
0081adf0  parmbuf                                                      
0081adf8  ti_sysbios_knl_Task_Instance_State_0_hookEnv__A              
0081ae00  _stack                                                       
0081b600  __CIOBUF_                                                    
0081b600  __TI_STACK_END                                               
0081b720  __TI_STATIC_BASE                                             
0081b720  gNumSubFrames                                                
0081b721  gReadTestConfigFromBinFile                                   
0081b724  gMCPILogMessageSize                                          
0081b728  gMaxL3RamUsage                                               
0081b72c  gMaxL3RamUsageTestId                                         
0081b730  gMaxTCMUsage                                                 
0081b734  gMaxTCMUsageTestId                                           
0081b740  gDPM                                                         
0081b744  regionId                                                     
0081b750  xdc_runtime_Text_charTab__A                                  
0081d196  ti_sysbios_family_c64p_Cache_Module__id__C                   
0081e048  _ctypes_                                                     
0081e14a  ti_sysbios_family_c64p_EventCombiner_Module__id__C           
0081e14c  ti_sysbios_family_c62_TaskSupport_stackAlignment__C          
0081e150  xdc_runtime_Text_nodeTab__A                                  
0081e3d8  ti_sysbios_knl_Task_Object__PARAMS__C                        
0081e41c  ti_sysbios_family_c64p_Cache_E_invalidL1CacheSize__C         
0081e49c  ti_sysbios_family_c64p_Cache_E_invalidL2CacheSize__C         
0081e4a0  gEdmaHwAttrs                                                 
0081e4d8  xdc_runtime_Startup_sfxnTab__A                               
0081e534  ti_sysbios_family_c64p_Cache_MAR0_31__C                      
0081e538  gDPMMessageFxnTable                                          
0081e560  ti_sysbios_heaps_HeapMem_Module__FXNS__C                     
0081e5ac  Mailbox_defaultCfg                                           
0081e5d0  ti_sysbios_gates_GateHwi_Module__FXNS__C                     
0081e5f4  ti_sysbios_gates_GateMutex_Module__FXNS__C                   
0081e618  ti_sysbios_heaps_HeapMem_Object__PARAMS__C                   
0081e63c  ti_sysbios_knl_Semaphore_Object__PARAMS__C                   
0081e6c0  ti_sysbios_gates_GateHwi_Object__DESC__C                     
0081e6e0  ti_sysbios_gates_GateMutex_Object__DESC__C                   
0081e700  ti_sysbios_heaps_HeapMem_Object__DESC__C                     
0081e720  ti_sysbios_knl_Queue_Object__DESC__C                         
0081e740  ti_sysbios_knl_Semaphore_Object__DESC__C                     
0081e760  ti_sysbios_knl_Task_Object__DESC__C                          
0081e7b4  ti_sysbios_gates_GateHwi_Object__PARAMS__C                   
0081e7cc  ti_sysbios_gates_GateMutex_Object__PARAMS__C                 
0081e7e4  ti_sysbios_knl_Queue_Object__PARAMS__C                       
0081e7fc  ti_sysbios_family_c64p_Cache_MAR128_159__C                   
0081e800  ti_sysbios_knl_Task_hooks__A                                 
0081e818  xdc_runtime_Startup_sfxnRts__A                               
0081e874  ti_sysbios_family_c64p_Cache_MAR160_191__C                   
0081e888  ti_sysbios_family_c64p_EventCombiner_EVTMASK__C              
0081e898  ti_sysbios_knl_Idle_funcList__A                              
0081e8a0  ti_sysbios_knl_Idle_funcList__C                              
0081e8a8  ti_sysbios_knl_Task_hooks__C                                 
0081e8b0  xdc_runtime_Startup_firstFxns__A                             
0081e8b8  xdc_runtime_Startup_firstFxns__C                             
0081e8c0  xdc_runtime_Startup_lastFxns__C                              
0081e8c8  ti_sysbios_family_c64p_Cache_MAR192_223__C                   
0081e8cc  ti_sysbios_family_c64p_Cache_MAR224_255__C                   
0081e8d0  ti_sysbios_family_c64p_Cache_MAR32_63__C                     
0081e8d4  ti_sysbios_family_c64p_Cache_MAR64_95__C                     
0081e8d8  ti_sysbios_family_c64p_Cache_MAR96_127__C                    
0081e8dc  ti_sysbios_family_c64p_EventCombiner_A_invalidEventId__C     
0081e8e0  ti_sysbios_family_c64p_EventCombiner_EVTRegs__C              
0081e8e4  ti_sysbios_family_c64p_EventCombiner_E_unpluggedEvent__C     
0081e8e8  ti_sysbios_family_c64p_EventCombiner_Module__diagsEnabled__C 
0081e8ec  ti_sysbios_family_c64p_EventCombiner_Module__diagsIncluded__C
0081e8f0  ti_sysbios_family_c64p_EventCombiner_Module__diagsMask__C    
0081e8f4  ti_sysbios_family_c64p_Exception_E_exceptionMax__C           
0081e8f8  ti_sysbios_family_c64p_Exception_exceptionHook__C            
0081e8fc  ti_sysbios_family_c64p_Exception_externalHook__C             
0081e900  ti_sysbios_family_c64p_Exception_internalHook__C             
0081e904  ti_sysbios_family_c64p_Exception_nmiHook__C                  
0081e908  ti_sysbios_family_c64p_Hwi_INTRMUX1Address__C                
0081e90c  ti_sysbios_gates_GateMutex_A_badContext__C                   
0081e910  ti_sysbios_gates_GateMutex_Instance_State_sem__O             
0081e914  ti_sysbios_gates_GateMutex_Module__diagsEnabled__C           
0081e918  ti_sysbios_gates_GateMutex_Module__diagsIncluded__C          
0081e91c  ti_sysbios_gates_GateMutex_Module__diagsMask__C              
0081e920  ti_sysbios_hal_Hwi_E_stackOverflow__C                        
0081e924  ti_sysbios_heaps_HeapBuf_Instance_State_freeList__O          
0081e928  ti_sysbios_heaps_HeapBuf_Object__count__C                    
0081e92c  ti_sysbios_heaps_HeapBuf_numConstructedHeaps__C              
0081e930  ti_sysbios_heaps_HeapMem_A_align__C                          
0081e934  ti_sysbios_heaps_HeapMem_A_heapSize__C                       
0081e938  ti_sysbios_heaps_HeapMem_A_invalidFree__C                    
0081e93c  ti_sysbios_heaps_HeapMem_A_zeroBlock__C                      
0081e940  ti_sysbios_heaps_HeapMem_E_memory__C                         
0081e944  ti_sysbios_heaps_HeapMem_Module__diagsEnabled__C             
0081e948  ti_sysbios_heaps_HeapMem_Module__diagsIncluded__C            
0081e94c  ti_sysbios_heaps_HeapMem_Module__diagsMask__C                
0081e950  ti_sysbios_heaps_HeapMem_Module__gateObj__C                  
0081e954  ti_sysbios_heaps_HeapMem_Object__count__C                    
0081e958  ti_sysbios_heaps_HeapMem_reqAlign__C                         
0081e95c  ti_sysbios_knl_Clock_Module_State_clockQ__O                  
0081e960  ti_sysbios_knl_Semaphore_A_badContext__C                     
0081e964  ti_sysbios_knl_Semaphore_A_noEvents__C                       
0081e968  ti_sysbios_knl_Semaphore_A_overflow__C                       
0081e96c  ti_sysbios_knl_Semaphore_A_pendTaskDisabled__C               
0081e970  ti_sysbios_knl_Semaphore_Instance_State_pendQ__O             
0081e974  ti_sysbios_knl_Semaphore_Module__diagsEnabled__C             
0081e978  ti_sysbios_knl_Semaphore_Module__diagsIncluded__C            
0081e97c  ti_sysbios_knl_Semaphore_Module__diagsMask__C                
0081e980  ti_sysbios_knl_Swi_Object__count__C                          
0081e984  ti_sysbios_knl_Task_A_badPriority__C                         
0081e988  ti_sysbios_knl_Task_A_badTaskState__C                        
0081e98c  ti_sysbios_knl_Task_A_badThreadType__C                       
0081e990  ti_sysbios_knl_Task_A_badTimeout__C                          
0081e994  ti_sysbios_knl_Task_A_noPendElem__C                          
0081e998  ti_sysbios_knl_Task_A_sleepTaskDisabled__C                   
0081e99c  ti_sysbios_knl_Task_E_spOutOfBounds__C                       
0081e9a0  ti_sysbios_knl_Task_E_stackOverflow__C                       
0081e9a4  ti_sysbios_knl_Task_Module_State_inactiveQ__O                
0081e9a8  ti_sysbios_knl_Task_Module__diagsEnabled__C                  
0081e9ac  ti_sysbios_knl_Task_Module__diagsIncluded__C                 
0081e9b0  ti_sysbios_knl_Task_Module__diagsMask__C                     
0081e9b4  ti_sysbios_knl_Task_Object__count__C                         
0081e9b8  ti_sysbios_knl_Task_Object__heap__C                          
0081e9bc  ti_sysbios_knl_Task_allBlockedFunc__C                        
0081e9c0  ti_sysbios_knl_Task_defaultStackHeap__C                      
0081e9c4  ti_sysbios_knl_Task_defaultStackSize__C                      
0081e9c8  ti_sysbios_knl_Task_numConstructedTasks__C                   
0081e9cc  ti_sysbios_timers_rti_Timer_E_cannotSupport__C               
0081e9d0  ti_sysbios_timers_rti_Timer_Module__diagsEnabled__C          
0081e9d4  ti_sysbios_timers_rti_Timer_Module__diagsIncluded__C         
0081e9d8  ti_sysbios_timers_rti_Timer_Module__diagsMask__C             
0081e9dc  ti_sysbios_timers_rti_Timer_numTimerDevices__C               
0081e9e0  ti_sysbios_timers_rti_Timer_startupNeeded__C                 
0081e9e4  ti_sysbios_utils_Load_Module_State_taskList__O               
0081e9e8  ti_sysbios_utils_Load_Module__diagsEnabled__C                
0081e9ec  ti_sysbios_utils_Load_Module__diagsIncluded__C               
0081e9f0  ti_sysbios_utils_Load_Module__diagsMask__C                   
0081e9f4  ti_sysbios_utils_Load_postUpdate__C                          
0081e9f8  ti_sysbios_utils_Load_windowInMs__C                          
0081e9fc  xdc_runtime_Assert_E_assertFailed__C                         
0081ea00  xdc_runtime_Core_A_initializedParams__C                      
0081ea04  xdc_runtime_Core_Module__diagsEnabled__C                     
0081ea08  xdc_runtime_Core_Module__diagsIncluded__C                    
0081ea0c  xdc_runtime_Core_Module__diagsMask__C                        
0081ea10  xdc_runtime_Error_E_memory__C                                
0081ea14  xdc_runtime_Error_policyFxn__C                               
0081ea18  xdc_runtime_Error_policy__C                                  
0081ea1c  xdc_runtime_Error_raiseHook__C                               
0081ea20  xdc_runtime_IGateProvider_Interface__BASE__C                 
0081ea24  xdc_runtime_IHeap_Interface__BASE__C                         
0081ea28  xdc_runtime_IModule_Interface__BASE__C                       
0081ea2c  xdc_runtime_Memory_defaultHeapInstance__C                    
0081ea30  xdc_runtime_Startup_execImpl__C                              
0081ea34  xdc_runtime_Startup_maxPasses__C                             
0081ea38  xdc_runtime_Startup_sfxnRts__C                               
0081ea3c  xdc_runtime_Startup_sfxnTab__C                               
0081ea40  xdc_runtime_System_Module__gateObj__C                        
0081ea44  xdc_runtime_System_abortFxn__C                               
0081ea48  xdc_runtime_System_exitFxn__C                                
0081ea4c  xdc_runtime_System_extendFxn__C                              
0081ea50  xdc_runtime_System_maxAtexitHandlers__C                      
0081ea54  xdc_runtime_Text_charTab__C                                  
0081ea58  xdc_runtime_Text_nameEmpty__C                                
0081ea5c  xdc_runtime_Text_nameStatic__C                               
0081ea60  xdc_runtime_Text_nameUnknown__C                              
0081ea64  xdc_runtime_Text_nodeTab__C                                  
0081ea68  xdc_runtime_Text_visitRopeFxn__C                             
0081ea6c  ti_sysbios_family_c64p_Exception_Module__id__C               
0081ea6e  ti_sysbios_family_c64p_Exception_useInternalBuffer__C        
0081ea70  ti_sysbios_gates_GateMutex_Module__id__C                     
0081ea72  ti_sysbios_hal_Hwi_Module__id__C                             
0081ea74  ti_sysbios_heaps_HeapMem_Module__id__C                       
0081ea76  ti_sysbios_knl_Semaphore_Module__id__C                       
0081ea78  ti_sysbios_knl_Task_Module__id__C                            
0081ea7a  ti_sysbios_timers_rti_Timer_Module__id__C                    
0081ea7c  ti_sysbios_timers_rti_Timer_continueOnSuspend__C             
0081ea7e  ti_sysbios_utils_Load_Module__id__C                          
0081ea80  ti_sysbios_utils_Load_autoAddTasks__C                        
0081ea82  ti_sysbios_utils_Load_updateInIdle__C                        
0081ea84  xdc_runtime_Core_Module__id__C                               
0081ea86  xdc_runtime_Error_maxDepth__C                                
0081ea88  xdc_runtime_Main_Module__id__C                               
0081ea8a  xdc_runtime_Memory_Module__id__C                             
0081ea8c  xdc_runtime_Text_charCnt__C                                  
0081ea8e  xdc_runtime_Text_isLoaded__C                                 
0081ea90  xdc_runtime_Text_registryModsLastId__C                       
0081ea92  xdc_runtime_Text_unnamedModsLastId__C                        
0081ea98  ti_sysbios_family_c64p_EventCombiner_Module__state__V        
0081ee98  _ftable                                                      
0081f078  _stream                                                      
0081f118  ti_sysbios_utils_Load_Module__state__V                       
0081f238  ti_sysbios_knl_Swi_Module_State_0_readyQ__A                  
0081f2b8  ti_sysbios_knl_Task_Module_State_0_readyQ__A                 
0081f338  _device                                                      
0081f3b0  ti_sysbios_family_c64p_Hwi_Object__table__V                  
0081f428  ti_sysbios_family_c64p_Hwi_Module__state__V                  
0081f494  _lock                                                        
0081f4f8  ti_sysbios_knl_Task_Object__table__V                         
0081f554  gMailboxMCB                                                  
0081f5a4  ti_sysbios_knl_Task_Module__state__V                         
0081f5ec  _unlock                                                      
0081f6b0  SOC_TranslateAddr_LUT                                        
0081f730  ti_sysbios_gates_GateMutex_Object__table__V                  
0081f770  ti_sysbios_timers_rti_Timer_Object__table__V                 
0081f7ac  __TI_ft_end                                                  
0081f7e8  gHWAHwCfg                                                    
0081f818  ti_sysbios_family_c64p_Exception_Module__state__V            
0081f848  ti_sysbios_knl_Swi_Object__table__V                          
0081f878  ti_sysbios_knl_Clock_Module__state__V                        
0081f8a4  gDPC_ObjectDetectionCfg                                      
0081f8c8  ti_sysbios_BIOS_Module__state__V                             
0081f8ec  __errno                                                      
0081f8ec  errno                                                        
0081f930  xdc_runtime_Error_IgnoreBlock                                
0081f950  xdc_runtime_System_Module_State_0_atexitHandlers__A          
0081f970  ti_sysbios_knl_Swi_Module__state__V                          
0081f990  ti_sysbios_utils_Load_Module_State_0_taskEnv__A              
0081f9e0  gMailboxDssBssHwCfg                                          
0081f9f8  gMailboxDssMssHwCfg                                          
0081fa10  gSOCHwAttrib                                                 
0081fa28  ti_sysbios_heaps_HeapMem_Object__table__V                    
0081fa40  ti_sysbios_timers_rti_Timer_Module_State_0_device__A         
0081fa58  gDPMRemoteTable                                              
0081fa6c  ti_sysbios_family_c64p_Cache_Module__state__V                
0081fa70  gHwaEDMAChanMapping                                          
0081fa80  ti_sysbios_timers_rti_Timer_Module_State_0_intFreqs__A       
0081fa90  ti_sysbios_timers_rti_Timer_Module__state__V                 
0081faa0  __TI_cleanup_ptr                                             
0081faa4  __TI_dtors_ptr                                               
0081faa8  __TI_enable_exit_profile_output                              
0081faac  gDPMHwAttrib                                                 
0081fab4  ti_sysbios_gates_GateHwi_Module__root__V                     
0081fabc  ti_sysbios_gates_GateMutex_Module__root__V                   
0081fac4  ti_sysbios_heaps_HeapBuf_Module__state__V                    
0081fac8  ti_sysbios_hal_Hwi_Object__table__V                          
0081fad0  ti_sysbios_heaps_HeapMem_Module__root__V                     
0081fad8  ti_sysbios_knl_Queue_Module__root__V                         
0081fae0  ti_sysbios_knl_Semaphore_Module__root__V                     
0081fae8  ti_sysbios_knl_Task_Module__root__V                          
0081faf0  ti_sysbios_timers_rti_Timer_Module_State_0_handles__A        
0081faf8  xdc_runtime_Registry_Module__state__V                        
0081fb00  xdc_runtime_Startup_Module__state__V                         
0081fb08  xdc_runtime_System_Module__state__V                          
0081fb10  gHWADriverPtr                                                
0081fb14  xdc_runtime_Memory_Module__state__V                          
0081fb18  ti_sysbios_gates_GateHwi_Object__table__V                    
0081fb1c  xdc_runtime_Error_Module__state__V                           
0081fb20  ti_sysbios_knl_Task_Module_State_0_idleTask__A               
0081fb28  ti_sysbios_utils_Load_Module_State_0_runningTask__A          
0081fb30  ti_sysbios_utils_Load_Module_State_0_taskStartTime__A        
0081fc28  MCPI_FailSignature                                           
0081fc2c  gObjDetObj                                                   
0081fc30  socHandle                                                    
0081fc34  gCurrTestId                                                  
0081fc36  MCPI_Result                                                  
00f00000  MCPI_logMessage                                              
20000000  gFrameConfig                                                 
20006de0  MCPI_setFeatureTestResult                                    
20007040  MCPI_Initialize                                              
20007080  MCPI_setTestResult                                           
200070e0  DPM_init                                                     
20007440  DPM_msgRecv                                                  
200079a0  DPM_deinit                                                   
20007b20  DPM_ioctl                                                    
20007f20  DPM_execute                                                  
20008000  DPM_pipeSend                                                 
20008380  DPM_notifyExecute                                            
20008420  DPM_pipeRecv                                                 
200084c0  DPM_start                                                    
20008560  DPM_stop                                                     
20008680  DPM_pipeDeinit                                               
20008700  DPM_pipeInit                                                 
20008780  DPM_listCat                                                  
20008840  DPM_msgInitHeader                                            
200088a0  DPM_listAdd                                                  
200088e0  DPM_listRemove                                               
20008dc0  genChirpData                                                 
20009620  initFrameData                                                
20009900  GaussianNoise                                                
20009a80  RandSimple                                                   
20009b80  __TI_printfi                                                 
2000d160  pow                                                          
2000d160  powl                                                         
2000d9a0  __c6xabi_divd                                                
2000dfa0  __c6xabi_divull                                              
2000e200  __c6xabi_divlli                                              
2000e340  __c6xabi_remlli                                              
2000e3a0  _subcull                                                     
2000e600  fopen                                                        
2000e720  __TI_cleanup                                                 
2000e7e0  __TI_closefile                                               
2000e8e0  fclose                                                       
2000e9e0  fread                                                        
2000ec20  atan                                                         
2000ec20  atanl                                                        
2000ee20  gObjectDetection_Test_L3Heap                                 
21080000  gObjectDetection_Test_chirpData                              
ffffffff  __TI_pprof_out_hndl                                          
ffffffff  __TI_prof_data_size                                          
ffffffff  __TI_prof_data_start                                         
ffffffff  __binit__                                                    
ffffffff  __c_args__                                                   
ffffffff  binit                                                        
UNDEFED   __TI_CINIT_Base                                              
UNDEFED   __TI_CINIT_Limit                                             
UNDEFED   __TI_Handler_Table_Base                                      
UNDEFED   __TI_Handler_Table_Limit                                     
UNDEFED   __TI_INITARRAY_Base                                          
UNDEFED   __TI_INITARRAY_Limit                                         
UNDEFED   __TI_TLS_INIT_Base                                           
UNDEFED   __TI_TLS_INIT_Limit                                          

[848 symbols]
